Archive member included because of file (symbol)

/Users/imac/Develop/stm32f4/arm_gcc/gcc-arm-none-eabi-4_8-2014q2/bin/../lib/gcc/arm-none-eabi/4.8.4/../../../../arm-none-eabi/lib/armv7-m/libm.a(lib_a-sf_cos.o)
                              obj/SKYROVER/gps.o (cosf)
/Users/imac/Develop/stm32f4/arm_gcc/gcc-arm-none-eabi-4_8-2014q2/bin/../lib/gcc/arm-none-eabi/4.8.4/../../../../arm-none-eabi/lib/armv7-m/libm.a(lib_a-sf_lrint.o)
                              obj/SKYROVER/imu.o (lrintf)
/Users/imac/Develop/stm32f4/arm_gcc/gcc-arm-none-eabi-4_8-2014q2/bin/../lib/gcc/arm-none-eabi/4.8.4/../../../../arm-none-eabi/lib/armv7-m/libm.a(lib_a-sf_sin.o)
                              obj/SKYROVER/gps.o (sinf)
/Users/imac/Develop/stm32f4/arm_gcc/gcc-arm-none-eabi-4_8-2014q2/bin/../lib/gcc/arm-none-eabi/4.8.4/../../../../arm-none-eabi/lib/armv7-m/libm.a(lib_a-wf_atan2.o)
                              obj/SKYROVER/gps.o (atan2f)
/Users/imac/Develop/stm32f4/arm_gcc/gcc-arm-none-eabi-4_8-2014q2/bin/../lib/gcc/arm-none-eabi/4.8.4/../../../../arm-none-eabi/lib/armv7-m/libm.a(lib_a-wf_pow.o)
                              obj/SKYROVER/imu.o (powf)
/Users/imac/Develop/stm32f4/arm_gcc/gcc-arm-none-eabi-4_8-2014q2/bin/../lib/gcc/arm-none-eabi/4.8.4/../../../../arm-none-eabi/lib/armv7-m/libm.a(lib_a-wf_sqrt.o)
                              obj/SKYROVER/gps.o (sqrtf)
/Users/imac/Develop/stm32f4/arm_gcc/gcc-arm-none-eabi-4_8-2014q2/bin/../lib/gcc/arm-none-eabi/4.8.4/../../../../arm-none-eabi/lib/armv7-m/libm.a(lib_a-ef_atan2.o)
                              /Users/imac/Develop/stm32f4/arm_gcc/gcc-arm-none-eabi-4_8-2014q2/bin/../lib/gcc/arm-none-eabi/4.8.4/../../../../arm-none-eabi/lib/armv7-m/libm.a(lib_a-wf_atan2.o) (__ieee754_atan2f)
/Users/imac/Develop/stm32f4/arm_gcc/gcc-arm-none-eabi-4_8-2014q2/bin/../lib/gcc/arm-none-eabi/4.8.4/../../../../arm-none-eabi/lib/armv7-m/libm.a(lib_a-ef_pow.o)
                              /Users/imac/Develop/stm32f4/arm_gcc/gcc-arm-none-eabi-4_8-2014q2/bin/../lib/gcc/arm-none-eabi/4.8.4/../../../../arm-none-eabi/lib/armv7-m/libm.a(lib_a-wf_pow.o) (__ieee754_powf)
/Users/imac/Develop/stm32f4/arm_gcc/gcc-arm-none-eabi-4_8-2014q2/bin/../lib/gcc/arm-none-eabi/4.8.4/../../../../arm-none-eabi/lib/armv7-m/libm.a(lib_a-ef_rem_pio2.o)
                              /Users/imac/Develop/stm32f4/arm_gcc/gcc-arm-none-eabi-4_8-2014q2/bin/../lib/gcc/arm-none-eabi/4.8.4/../../../../arm-none-eabi/lib/armv7-m/libm.a(lib_a-sf_cos.o) (__ieee754_rem_pio2f)
/Users/imac/Develop/stm32f4/arm_gcc/gcc-arm-none-eabi-4_8-2014q2/bin/../lib/gcc/arm-none-eabi/4.8.4/../../../../arm-none-eabi/lib/armv7-m/libm.a(lib_a-ef_sqrt.o)
                              /Users/imac/Develop/stm32f4/arm_gcc/gcc-arm-none-eabi-4_8-2014q2/bin/../lib/gcc/arm-none-eabi/4.8.4/../../../../arm-none-eabi/lib/armv7-m/libm.a(lib_a-wf_sqrt.o) (__ieee754_sqrtf)
/Users/imac/Develop/stm32f4/arm_gcc/gcc-arm-none-eabi-4_8-2014q2/bin/../lib/gcc/arm-none-eabi/4.8.4/../../../../arm-none-eabi/lib/armv7-m/libm.a(lib_a-kf_cos.o)
                              /Users/imac/Develop/stm32f4/arm_gcc/gcc-arm-none-eabi-4_8-2014q2/bin/../lib/gcc/arm-none-eabi/4.8.4/../../../../arm-none-eabi/lib/armv7-m/libm.a(lib_a-sf_cos.o) (__kernel_cosf)
/Users/imac/Develop/stm32f4/arm_gcc/gcc-arm-none-eabi-4_8-2014q2/bin/../lib/gcc/arm-none-eabi/4.8.4/../../../../arm-none-eabi/lib/armv7-m/libm.a(lib_a-kf_rem_pio2.o)
                              /Users/imac/Develop/stm32f4/arm_gcc/gcc-arm-none-eabi-4_8-2014q2/bin/../lib/gcc/arm-none-eabi/4.8.4/../../../../arm-none-eabi/lib/armv7-m/libm.a(lib_a-ef_rem_pio2.o) (__kernel_rem_pio2f)
/Users/imac/Develop/stm32f4/arm_gcc/gcc-arm-none-eabi-4_8-2014q2/bin/../lib/gcc/arm-none-eabi/4.8.4/../../../../arm-none-eabi/lib/armv7-m/libm.a(lib_a-kf_sin.o)
                              /Users/imac/Develop/stm32f4/arm_gcc/gcc-arm-none-eabi-4_8-2014q2/bin/../lib/gcc/arm-none-eabi/4.8.4/../../../../arm-none-eabi/lib/armv7-m/libm.a(lib_a-sf_cos.o) (__kernel_sinf)
/Users/imac/Develop/stm32f4/arm_gcc/gcc-arm-none-eabi-4_8-2014q2/bin/../lib/gcc/arm-none-eabi/4.8.4/../../../../arm-none-eabi/lib/armv7-m/libm.a(lib_a-s_lib_ver.o)
                              /Users/imac/Develop/stm32f4/arm_gcc/gcc-arm-none-eabi-4_8-2014q2/bin/../lib/gcc/arm-none-eabi/4.8.4/../../../../arm-none-eabi/lib/armv7-m/libm.a(lib_a-wf_pow.o) (__fdlib_version)
/Users/imac/Develop/stm32f4/arm_gcc/gcc-arm-none-eabi-4_8-2014q2/bin/../lib/gcc/arm-none-eabi/4.8.4/../../../../arm-none-eabi/lib/armv7-m/libm.a(lib_a-s_matherr.o)
                              /Users/imac/Develop/stm32f4/arm_gcc/gcc-arm-none-eabi-4_8-2014q2/bin/../lib/gcc/arm-none-eabi/4.8.4/../../../../arm-none-eabi/lib/armv7-m/libm.a(lib_a-wf_pow.o) (matherr)
/Users/imac/Develop/stm32f4/arm_gcc/gcc-arm-none-eabi-4_8-2014q2/bin/../lib/gcc/arm-none-eabi/4.8.4/../../../../arm-none-eabi/lib/armv7-m/libm.a(lib_a-s_rint.o)
                              /Users/imac/Develop/stm32f4/arm_gcc/gcc-arm-none-eabi-4_8-2014q2/bin/../lib/gcc/arm-none-eabi/4.8.4/../../../../arm-none-eabi/lib/armv7-m/libm.a(lib_a-wf_pow.o) (rint)
/Users/imac/Develop/stm32f4/arm_gcc/gcc-arm-none-eabi-4_8-2014q2/bin/../lib/gcc/arm-none-eabi/4.8.4/../../../../arm-none-eabi/lib/armv7-m/libm.a(lib_a-sf_atan.o)
                              /Users/imac/Develop/stm32f4/arm_gcc/gcc-arm-none-eabi-4_8-2014q2/bin/../lib/gcc/arm-none-eabi/4.8.4/../../../../arm-none-eabi/lib/armv7-m/libm.a(lib_a-ef_atan2.o) (atanf)
/Users/imac/Develop/stm32f4/arm_gcc/gcc-arm-none-eabi-4_8-2014q2/bin/../lib/gcc/arm-none-eabi/4.8.4/../../../../arm-none-eabi/lib/armv7-m/libm.a(lib_a-sf_fabs.o)
                              /Users/imac/Develop/stm32f4/arm_gcc/gcc-arm-none-eabi-4_8-2014q2/bin/../lib/gcc/arm-none-eabi/4.8.4/../../../../arm-none-eabi/lib/armv7-m/libm.a(lib_a-ef_atan2.o) (fabsf)
/Users/imac/Develop/stm32f4/arm_gcc/gcc-arm-none-eabi-4_8-2014q2/bin/../lib/gcc/arm-none-eabi/4.8.4/../../../../arm-none-eabi/lib/armv7-m/libm.a(lib_a-sf_finite.o)
                              /Users/imac/Develop/stm32f4/arm_gcc/gcc-arm-none-eabi-4_8-2014q2/bin/../lib/gcc/arm-none-eabi/4.8.4/../../../../arm-none-eabi/lib/armv7-m/libm.a(lib_a-wf_pow.o) (finitef)
/Users/imac/Develop/stm32f4/arm_gcc/gcc-arm-none-eabi-4_8-2014q2/bin/../lib/gcc/arm-none-eabi/4.8.4/../../../../arm-none-eabi/lib/armv7-m/libm.a(lib_a-sf_floor.o)
                              /Users/imac/Develop/stm32f4/arm_gcc/gcc-arm-none-eabi-4_8-2014q2/bin/../lib/gcc/arm-none-eabi/4.8.4/../../../../arm-none-eabi/lib/armv7-m/libm.a(lib_a-kf_rem_pio2.o) (floorf)
/Users/imac/Develop/stm32f4/arm_gcc/gcc-arm-none-eabi-4_8-2014q2/bin/../lib/gcc/arm-none-eabi/4.8.4/../../../../arm-none-eabi/lib/armv7-m/libm.a(lib_a-sf_fpclassify.o)
                              /Users/imac/Develop/stm32f4/arm_gcc/gcc-arm-none-eabi-4_8-2014q2/bin/../lib/gcc/arm-none-eabi/4.8.4/../../../../arm-none-eabi/lib/armv7-m/libm.a(lib_a-wf_pow.o) (__fpclassifyf)
/Users/imac/Develop/stm32f4/arm_gcc/gcc-arm-none-eabi-4_8-2014q2/bin/../lib/gcc/arm-none-eabi/4.8.4/../../../../arm-none-eabi/lib/armv7-m/libm.a(lib_a-sf_nan.o)
                              /Users/imac/Develop/stm32f4/arm_gcc/gcc-arm-none-eabi-4_8-2014q2/bin/../lib/gcc/arm-none-eabi/4.8.4/../../../../arm-none-eabi/lib/armv7-m/libm.a(lib_a-ef_pow.o) (nanf)
/Users/imac/Develop/stm32f4/arm_gcc/gcc-arm-none-eabi-4_8-2014q2/bin/../lib/gcc/arm-none-eabi/4.8.4/../../../../arm-none-eabi/lib/armv7-m/libm.a(lib_a-sf_scalbn.o)
                              /Users/imac/Develop/stm32f4/arm_gcc/gcc-arm-none-eabi-4_8-2014q2/bin/../lib/gcc/arm-none-eabi/4.8.4/../../../../arm-none-eabi/lib/armv7-m/libm.a(lib_a-ef_pow.o) (scalbnf)
/Users/imac/Develop/stm32f4/arm_gcc/gcc-arm-none-eabi-4_8-2014q2/bin/../lib/gcc/arm-none-eabi/4.8.4/../../../../arm-none-eabi/lib/armv7-m/libm.a(lib_a-sf_copysign.o)
                              /Users/imac/Develop/stm32f4/arm_gcc/gcc-arm-none-eabi-4_8-2014q2/bin/../lib/gcc/arm-none-eabi/4.8.4/../../../../arm-none-eabi/lib/armv7-m/libm.a(lib_a-sf_scalbn.o) (copysignf)
/Users/imac/Develop/stm32f4/arm_gcc/gcc-arm-none-eabi-4_8-2014q2/bin/../lib/gcc/arm-none-eabi/4.8.4/armv7-m/libgcc.a(_arm_addsubdf3.o)
                              /Users/imac/Develop/stm32f4/arm_gcc/gcc-arm-none-eabi-4_8-2014q2/bin/../lib/gcc/arm-none-eabi/4.8.4/../../../../arm-none-eabi/lib/armv7-m/libm.a(lib_a-s_rint.o) (__aeabi_dsub)
/Users/imac/Develop/stm32f4/arm_gcc/gcc-arm-none-eabi-4_8-2014q2/bin/../lib/gcc/arm-none-eabi/4.8.4/armv7-m/libgcc.a(_arm_muldivdf3.o)
                              obj/SKYROVER/gps.o (__aeabi_dmul)
/Users/imac/Develop/stm32f4/arm_gcc/gcc-arm-none-eabi-4_8-2014q2/bin/../lib/gcc/arm-none-eabi/4.8.4/armv7-m/libgcc.a(_arm_cmpdf2.o)
                              /Users/imac/Develop/stm32f4/arm_gcc/gcc-arm-none-eabi-4_8-2014q2/bin/../lib/gcc/arm-none-eabi/4.8.4/../../../../arm-none-eabi/lib/armv7-m/libm.a(lib_a-wf_pow.o) (__aeabi_dcmpeq)
/Users/imac/Develop/stm32f4/arm_gcc/gcc-arm-none-eabi-4_8-2014q2/bin/../lib/gcc/arm-none-eabi/4.8.4/armv7-m/libgcc.a(_arm_truncdfsf2.o)
                              obj/SKYROVER/gps.o (__aeabi_d2f)
/Users/imac/Develop/stm32f4/arm_gcc/gcc-arm-none-eabi-4_8-2014q2/bin/../lib/gcc/arm-none-eabi/4.8.4/armv7-m/libgcc.a(_arm_addsubsf3.o)
                              obj/SKYROVER/cli.o (__aeabi_fsub)
/Users/imac/Develop/stm32f4/arm_gcc/gcc-arm-none-eabi-4_8-2014q2/bin/../lib/gcc/arm-none-eabi/4.8.4/armv7-m/libgcc.a(_arm_muldivsf3.o)
                              obj/SKYROVER/drv_hmc5883l.o (__aeabi_fmul)
/Users/imac/Develop/stm32f4/arm_gcc/gcc-arm-none-eabi-4_8-2014q2/bin/../lib/gcc/arm-none-eabi/4.8.4/armv7-m/libgcc.a(_arm_cmpsf2.o)
                              obj/SKYROVER/cli.o (__aeabi_fcmpeq)
/Users/imac/Develop/stm32f4/arm_gcc/gcc-arm-none-eabi-4_8-2014q2/bin/../lib/gcc/arm-none-eabi/4.8.4/armv7-m/libgcc.a(_arm_fixsfsi.o)
                              obj/SKYROVER/drv_hmc5883l.o (__aeabi_f2iz)
/Users/imac/Develop/stm32f4/arm_gcc/gcc-arm-none-eabi-4_8-2014q2/bin/../lib/gcc/arm-none-eabi/4.8.4/armv7-m/libgcc.a(_arm_fixunssfsi.o)
                              obj/SKYROVER/gps.o (__aeabi_f2uiz)
/Users/imac/Develop/stm32f4/arm_gcc/gcc-arm-none-eabi-4_8-2014q2/bin/../lib/gcc/arm-none-eabi/4.8.4/../../../../arm-none-eabi/lib/armv7-m/libc.a(lib_a-atoi.o)
                              obj/SKYROVER/cli.o (atoi)
/Users/imac/Develop/stm32f4/arm_gcc/gcc-arm-none-eabi-4_8-2014q2/bin/../lib/gcc/arm-none-eabi/4.8.4/../../../../arm-none-eabi/lib/armv7-m/libc.a(lib_a-bsearch.o)
                              obj/SKYROVER/cli.o (bsearch)
/Users/imac/Develop/stm32f4/arm_gcc/gcc-arm-none-eabi-4_8-2014q2/bin/../lib/gcc/arm-none-eabi/4.8.4/../../../../arm-none-eabi/lib/armv7-m/libc.a(lib_a-ctype_.o)
                              obj/SKYROVER/cli.o (__ctype_ptr__)
/Users/imac/Develop/stm32f4/arm_gcc/gcc-arm-none-eabi-4_8-2014q2/bin/../lib/gcc/arm-none-eabi/4.8.4/../../../../arm-none-eabi/lib/armv7-m/libc.a(lib_a-errno.o)
                              /Users/imac/Develop/stm32f4/arm_gcc/gcc-arm-none-eabi-4_8-2014q2/bin/../lib/gcc/arm-none-eabi/4.8.4/../../../../arm-none-eabi/lib/armv7-m/libm.a(lib_a-wf_pow.o) (__errno)
/Users/imac/Develop/stm32f4/arm_gcc/gcc-arm-none-eabi-4_8-2014q2/bin/../lib/gcc/arm-none-eabi/4.8.4/../../../../arm-none-eabi/lib/armv7-m/libc.a(lib_a-exit.o)
                              /Users/imac/Develop/stm32f4/arm_gcc/gcc-arm-none-eabi-4_8-2014q2/bin/../lib/gcc/arm-none-eabi/4.8.4/../../../../arm-none-eabi/lib/armv7-m/crt0.o (exit)
/Users/imac/Develop/stm32f4/arm_gcc/gcc-arm-none-eabi-4_8-2014q2/bin/../lib/gcc/arm-none-eabi/4.8.4/../../../../arm-none-eabi/lib/armv7-m/libc.a(lib_a-impure.o)
                              /Users/imac/Develop/stm32f4/arm_gcc/gcc-arm-none-eabi-4_8-2014q2/bin/../lib/gcc/arm-none-eabi/4.8.4/../../../../arm-none-eabi/lib/armv7-m/libc.a(lib_a-exit.o) (_global_impure_ptr)
/Users/imac/Develop/stm32f4/arm_gcc/gcc-arm-none-eabi-4_8-2014q2/bin/../lib/gcc/arm-none-eabi/4.8.4/../../../../arm-none-eabi/lib/armv7-m/libc.a(lib_a-init.o)
                              /Users/imac/Develop/stm32f4/arm_gcc/gcc-arm-none-eabi-4_8-2014q2/bin/../lib/gcc/arm-none-eabi/4.8.4/../../../../arm-none-eabi/lib/armv7-m/crt0.o (__libc_init_array)
/Users/imac/Develop/stm32f4/arm_gcc/gcc-arm-none-eabi-4_8-2014q2/bin/../lib/gcc/arm-none-eabi/4.8.4/../../../../arm-none-eabi/lib/armv7-m/libc.a(lib_a-memcpy.o)
                              obj/SKYROVER/config.o (memcpy)
/Users/imac/Develop/stm32f4/arm_gcc/gcc-arm-none-eabi-4_8-2014q2/bin/../lib/gcc/arm-none-eabi/4.8.4/../../../../arm-none-eabi/lib/armv7-m/libc.a(lib_a-memset.o)
                              /Users/imac/Develop/stm32f4/arm_gcc/gcc-arm-none-eabi-4_8-2014q2/bin/../lib/gcc/arm-none-eabi/4.8.4/../../../../arm-none-eabi/lib/armv7-m/crt0.o (memset)
/Users/imac/Develop/stm32f4/arm_gcc/gcc-arm-none-eabi-4_8-2014q2/bin/../lib/gcc/arm-none-eabi/4.8.4/../../../../arm-none-eabi/lib/armv7-m/libc.a(lib_a-strcat.o)
                              obj/SKYROVER/cli.o (strcat)
/Users/imac/Develop/stm32f4/arm_gcc/gcc-arm-none-eabi-4_8-2014q2/bin/../lib/gcc/arm-none-eabi/4.8.4/../../../../arm-none-eabi/lib/armv7-m/libc.a(lib_a-strchr.o)
                              obj/SKYROVER/cli.o (strchr)
/Users/imac/Develop/stm32f4/arm_gcc/gcc-arm-none-eabi-4_8-2014q2/bin/../lib/gcc/arm-none-eabi/4.8.4/../../../../arm-none-eabi/lib/armv7-m/libc.a(lib_a-strcpy.o)
                              /Users/imac/Develop/stm32f4/arm_gcc/gcc-arm-none-eabi-4_8-2014q2/bin/../lib/gcc/arm-none-eabi/4.8.4/../../../../arm-none-eabi/lib/armv7-m/libc.a(lib_a-strcat.o) (strcpy)
/Users/imac/Develop/stm32f4/arm_gcc/gcc-arm-none-eabi-4_8-2014q2/bin/../lib/gcc/arm-none-eabi/4.8.4/../../../../arm-none-eabi/lib/armv7-m/libc.a(lib_a-strlen.o)
                              obj/SKYROVER/cli.o (strlen)
/Users/imac/Develop/stm32f4/arm_gcc/gcc-arm-none-eabi-4_8-2014q2/bin/../lib/gcc/arm-none-eabi/4.8.4/../../../../arm-none-eabi/lib/armv7-m/libc.a(lib_a-strncasecmp.o)
                              obj/SKYROVER/cli.o (strncasecmp)
/Users/imac/Develop/stm32f4/arm_gcc/gcc-arm-none-eabi-4_8-2014q2/bin/../lib/gcc/arm-none-eabi/4.8.4/../../../../arm-none-eabi/lib/armv7-m/libc.a(lib_a-strncpy.o)
                              obj/SKYROVER/cli.o (strncpy)
/Users/imac/Develop/stm32f4/arm_gcc/gcc-arm-none-eabi-4_8-2014q2/bin/../lib/gcc/arm-none-eabi/4.8.4/../../../../arm-none-eabi/lib/armv7-m/libc.a(lib_a-strstr.o)
                              obj/SKYROVER/cli.o (strstr)
/Users/imac/Develop/stm32f4/arm_gcc/gcc-arm-none-eabi-4_8-2014q2/bin/../lib/gcc/arm-none-eabi/4.8.4/../../../../arm-none-eabi/lib/armv7-m/libc.a(lib_a-strtok.o)
                              obj/SKYROVER/cli.o (strtok)
/Users/imac/Develop/stm32f4/arm_gcc/gcc-arm-none-eabi-4_8-2014q2/bin/../lib/gcc/arm-none-eabi/4.8.4/../../../../arm-none-eabi/lib/armv7-m/libc.a(lib_a-strtok_r.o)
                              /Users/imac/Develop/stm32f4/arm_gcc/gcc-arm-none-eabi-4_8-2014q2/bin/../lib/gcc/arm-none-eabi/4.8.4/../../../../arm-none-eabi/lib/armv7-m/libc.a(lib_a-strtok.o) (__strtok_r)
/Users/imac/Develop/stm32f4/arm_gcc/gcc-arm-none-eabi-4_8-2014q2/bin/../lib/gcc/arm-none-eabi/4.8.4/../../../../arm-none-eabi/lib/armv7-m/libc.a(lib_a-strtol.o)
                              /Users/imac/Develop/stm32f4/arm_gcc/gcc-arm-none-eabi-4_8-2014q2/bin/../lib/gcc/arm-none-eabi/4.8.4/../../../../arm-none-eabi/lib/armv7-m/libc.a(lib_a-atoi.o) (_strtol_r)
/Users/imac/Develop/stm32f4/arm_gcc/gcc-arm-none-eabi-4_8-2014q2/bin/../lib/gcc/arm-none-eabi/4.8.4/../../../../arm-none-eabi/lib/armv7-m/libc.a(lib_a-__call_atexit.o)
                              /Users/imac/Develop/stm32f4/arm_gcc/gcc-arm-none-eabi-4_8-2014q2/bin/../lib/gcc/arm-none-eabi/4.8.4/../../../../arm-none-eabi/lib/armv7-m/libc.a(lib_a-exit.o) (__call_exitprocs)
/Users/imac/Develop/stm32f4/arm_gcc/gcc-arm-none-eabi-4_8-2014q2/bin/../lib/gcc/arm-none-eabi/4.8.4/../../../../arm-none-eabi/lib/armv7-m/libc.a(lib_a-atexit.o)
                              /Users/imac/Develop/stm32f4/arm_gcc/gcc-arm-none-eabi-4_8-2014q2/bin/../lib/gcc/arm-none-eabi/4.8.4/../../../../arm-none-eabi/lib/armv7-m/libc.a(lib_a-__call_atexit.o) (atexit)
/Users/imac/Develop/stm32f4/arm_gcc/gcc-arm-none-eabi-4_8-2014q2/bin/../lib/gcc/arm-none-eabi/4.8.4/../../../../arm-none-eabi/lib/armv7-m/libc.a(lib_a-fini.o)
                              /Users/imac/Develop/stm32f4/arm_gcc/gcc-arm-none-eabi-4_8-2014q2/bin/../lib/gcc/arm-none-eabi/4.8.4/../../../../arm-none-eabi/lib/armv7-m/libc.a(lib_a-__call_atexit.o) (__libc_fini_array)
/Users/imac/Develop/stm32f4/arm_gcc/gcc-arm-none-eabi-4_8-2014q2/bin/../lib/gcc/arm-none-eabi/4.8.4/../../../../arm-none-eabi/lib/armv7-m/libc.a(lib_a-memchr-stub.o)
                              /Users/imac/Develop/stm32f4/arm_gcc/gcc-arm-none-eabi-4_8-2014q2/bin/../lib/gcc/arm-none-eabi/4.8.4/../../../../arm-none-eabi/lib/armv7-m/libc.a(lib_a-strstr.o) (memchr)
/Users/imac/Develop/stm32f4/arm_gcc/gcc-arm-none-eabi-4_8-2014q2/bin/../lib/gcc/arm-none-eabi/4.8.4/../../../../arm-none-eabi/lib/armv7-m/libc.a(lib_a-memcmp.o)
                              /Users/imac/Develop/stm32f4/arm_gcc/gcc-arm-none-eabi-4_8-2014q2/bin/../lib/gcc/arm-none-eabi/4.8.4/../../../../arm-none-eabi/lib/armv7-m/libc.a(lib_a-strstr.o) (memcmp)
/Users/imac/Develop/stm32f4/arm_gcc/gcc-arm-none-eabi-4_8-2014q2/bin/../lib/gcc/arm-none-eabi/4.8.4/../../../../arm-none-eabi/lib/armv7-m/libc.a(lib_a-__atexit.o)
                              /Users/imac/Develop/stm32f4/arm_gcc/gcc-arm-none-eabi-4_8-2014q2/bin/../lib/gcc/arm-none-eabi/4.8.4/../../../../arm-none-eabi/lib/armv7-m/libc.a(lib_a-atexit.o) (__register_exitproc)

Allocating common symbols
Common symbol       size              file

SaveRState          0x2               obj/SKYROVER/usb_int.o
acc                 0x10              obj/SKYROVER/sensors.o
ubs_protocol_bytes  0x1               obj/SKYROVER/gps.o
HSEStartUpStatus    0x1               obj/SKYROVER/hw_config.o
GPS_svinfo_chn      0x10              obj/SKYROVER/mw.o
sonarAlt            0x4               obj/SKYROVER/imu.o
gyroADC             0x6               obj/SKYROVER/imu.o
ubx_nav_status_bits
                    0x1               obj/SKYROVER/gps.o
softSerialPorts     0x490             obj/SKYROVER/drv_softserial.o
telemTemperature1   0x2               obj/SKYROVER/mw.o
SaveState           0x2               obj/SKYROVER/usb_init.o
f                   0x11              obj/SKYROVER/mw.o
GPS_altitude        0x2               obj/SKYROVER/mw.o
nav_rated           0x4               obj/SKYROVER/mw.o
xLeadFilter         0x2               obj/SKYROVER/gps.o
lookupThrottleRC    0x18              obj/SKYROVER/mw.o
nav                 0x4               obj/SKYROVER/mw.o
GPS_speed           0x2               obj/SKYROVER/mw.o
GPS_hold            0x8               obj/SKYROVER/mw.o
Thread_Serial_Handle
                    0x4               obj/SKYROVER/main.o
wIstr               0x2               obj/SKYROVER/usb_istr.o
pProperty           0x4               obj/SKYROVER/usb_init.o
xQueueRegistry      0x40              obj/SKYROVER/queue.o
debug               0x8               obj/SKYROVER/mw.o
EPindex             0x1               obj/SKYROVER/usb_init.o
accSum              0xc               obj/SKYROVER/imu.o
accVelScale         0x4               obj/SKYROVER/imu.o
Hw_VCom_RxdFuncPtr  0x4               obj/SKYROVER/drv_vcom.o
accADC              0x6               obj/SKYROVER/imu.o
magHold             0x2               obj/SKYROVER/sensors.o
core                0x14              obj/SKYROVER/main.o
SaveTState          0x2               obj/SKYROVER/usb_int.o
gyro                0x10              obj/SKYROVER/sensors.o
gpsData             0x18              obj/SKYROVER/gps.o
Device_Info         0x1c              obj/SKYROVER/usb_init.o
EstAlt              0x4               obj/SKYROVER/imu.o
rcCommand           0x8               obj/SKYROVER/mw.o
pUser_Standard_Requests
                    0x4               obj/SKYROVER/usb_init.o
magADC              0x6               obj/SKYROVER/imu.o
Hw_VCom_Q_Buffer    0x401             obj/SKYROVER/drv_vcom_q.o
Thread_Loop_Handle  0x4               obj/SKYROVER/main.o
vbat                0x1               obj/SKYROVER/mw.o
yLeadFilter         0x2               obj/SKYROVER/gps.o
cfg                 0xc4              obj/SKYROVER/config.o
USB_Rx_Buffer       0x40              obj/SKYROVER/usb_endp.o
baro                0x18              obj/SKYROVER/sensors.o
USART_Rx_Buffer     0x800             obj/SKYROVER/hw_config.o
batteryWarningVoltage
                    0x2               obj/SKYROVER/mw.o
StatusInfo          0x2               obj/SKYROVER/usb_core.o
pInformation        0x4               obj/SKYROVER/usb_init.o
ResumeS             0x2               obj/SKYROVER/usb_pwr.o
axisPID             0x6               obj/SKYROVER/mw.o
timerConfig         0x100             obj/SKYROVER/drv_timer.o
GPS_distanceToHome  0x2               obj/SKYROVER/mw.o
GPS_home            0x8               obj/SKYROVER/mw.o
AltHold             0x4               obj/SKYROVER/imu.o
spekFrame           0x10              obj/SKYROVER/spektrum.o
GPS_directionToHome
                    0x2               obj/SKYROVER/mw.o
rcOptions           0x15              obj/SKYROVER/mw.o
mcfg                0x37c             obj/SKYROVER/config.o
GPS_svinfo_svid     0x10              obj/SKYROVER/mw.o
accSmooth           0x6               obj/SKYROVER/imu.o
GPS_coord           0x8               obj/SKYROVER/mw.o
USART_InitStructure
                    0x10              obj/SKYROVER/hw_config.o
Hw_VCom_Q_End       0x2               obj/SKYROVER/drv_vcom_q.o
GPS_svinfo_quality  0x10              obj/SKYROVER/mw.o
dynI8               0x3               obj/SKYROVER/mw.o
rssi                0x2               obj/SKYROVER/mw.o
GPS_numSat          0x1               obj/SKYROVER/mw.o
GPS_numCh           0x1               obj/SKYROVER/mw.o
headFreeModeHold    0x2               obj/SKYROVER/mw.o
motor               0x18              obj/SKYROVER/mixer.o
rcData              0x24              obj/SKYROVER/mw.o
dynD8               0x3               obj/SKYROVER/mw.o
motor_disarmed      0x18              obj/SKYROVER/mixer.o
dynP8               0x3               obj/SKYROVER/mw.o
Hw_VCom_Q_Start     0x2               obj/SKYROVER/drv_vcom_q.o
GPS_svinfo_cno      0x10              obj/SKYROVER/mw.o
EP                  0x20              obj/SKYROVER/usb_pwr.o
EXTI_InitStructure  0x8               obj/SKYROVER/hw_config.o
AccInflightCalibrationArmed
                    0x2               obj/SKYROVER/mw.o
lookupPitchRollRC   0xe               obj/SKYROVER/mw.o
Hw_VCom_Q_Size      0x2               obj/SKYROVER/drv_vcom_q.o
ubs_nav_fix_type    0x1               obj/SKYROVER/gps.o
wInterrupt_Mask     0x2               obj/SKYROVER/usb_init.o
EstG                0xc               obj/SKYROVER/imu.o
heading             0x2               obj/SKYROVER/sensors.o

Discarded input sections

 .text          0x0000000000000000        0x0 /Users/imac/Develop/stm32f4/arm_gcc/gcc-arm-none-eabi-4_8-2014q2/bin/../lib/gcc/arm-none-eabi/4.8.4/armv7-m/crti.o
 .data          0x0000000000000000        0x0 /Users/imac/Develop/stm32f4/arm_gcc/gcc-arm-none-eabi-4_8-2014q2/bin/../lib/gcc/arm-none-eabi/4.8.4/armv7-m/crti.o
 .bss           0x0000000000000000        0x0 /Users/imac/Develop/stm32f4/arm_gcc/gcc-arm-none-eabi-4_8-2014q2/bin/../lib/gcc/arm-none-eabi/4.8.4/armv7-m/crti.o
 .data          0x0000000000000000        0x4 /Users/imac/Develop/stm32f4/arm_gcc/gcc-arm-none-eabi-4_8-2014q2/bin/../lib/gcc/arm-none-eabi/4.8.4/armv7-m/crtbegin.o
 .text          0x0000000000000000       0x74 /Users/imac/Develop/stm32f4/arm_gcc/gcc-arm-none-eabi-4_8-2014q2/bin/../lib/gcc/arm-none-eabi/4.8.4/../../../../arm-none-eabi/lib/armv7-m/crt0.o
 .data          0x0000000000000000        0x0 /Users/imac/Develop/stm32f4/arm_gcc/gcc-arm-none-eabi-4_8-2014q2/bin/../lib/gcc/arm-none-eabi/4.8.4/../../../../arm-none-eabi/lib/armv7-m/crt0.o
 .bss           0x0000000000000000        0x0 /Users/imac/Develop/stm32f4/arm_gcc/gcc-arm-none-eabi-4_8-2014q2/bin/../lib/gcc/arm-none-eabi/4.8.4/../../../../arm-none-eabi/lib/armv7-m/crt0.o
 .ARM.extab     0x0000000000000000        0x0 /Users/imac/Develop/stm32f4/arm_gcc/gcc-arm-none-eabi-4_8-2014q2/bin/../lib/gcc/arm-none-eabi/4.8.4/../../../../arm-none-eabi/lib/armv7-m/crt0.o
 .ARM.exidx     0x0000000000000000        0x8 /Users/imac/Develop/stm32f4/arm_gcc/gcc-arm-none-eabi-4_8-2014q2/bin/../lib/gcc/arm-none-eabi/4.8.4/../../../../arm-none-eabi/lib/armv7-m/crt0.o
 .ARM.attributes
                0x0000000000000000       0x1b /Users/imac/Develop/stm32f4/arm_gcc/gcc-arm-none-eabi-4_8-2014q2/bin/../lib/gcc/arm-none-eabi/4.8.4/../../../../arm-none-eabi/lib/armv7-m/crt0.o
 .text          0x0000000000000000        0x0 obj/SKYROVER/drv_adc.o
 .data          0x0000000000000000        0x0 obj/SKYROVER/drv_adc.o
 .bss           0x0000000000000000        0x0 obj/SKYROVER/drv_adc.o
 .text          0x0000000000000000        0x0 obj/SKYROVER/drv_adxl345.o
 .data          0x0000000000000000        0x0 obj/SKYROVER/drv_adxl345.o
 .bss           0x0000000000000000        0x0 obj/SKYROVER/drv_adxl345.o
 .text          0x0000000000000000        0x0 obj/SKYROVER/drv_bma280.o
 .data          0x0000000000000000        0x0 obj/SKYROVER/drv_bma280.o
 .bss           0x0000000000000000        0x0 obj/SKYROVER/drv_bma280.o
 .text          0x0000000000000000        0x0 obj/SKYROVER/drv_bmp085.o
 .data          0x0000000000000000        0x0 obj/SKYROVER/drv_bmp085.o
 .bss           0x0000000000000000        0x0 obj/SKYROVER/drv_bmp085.o
 .text          0x0000000000000000        0x0 obj/SKYROVER/drv_ms5611.o
 .data          0x0000000000000000        0x0 obj/SKYROVER/drv_ms5611.o
 .bss           0x0000000000000000        0x0 obj/SKYROVER/drv_ms5611.o
 .text          0x0000000000000000        0x0 obj/SKYROVER/drv_hcsr04.o
 .data          0x0000000000000000        0x0 obj/SKYROVER/drv_hcsr04.o
 .bss           0x0000000000000000        0x0 obj/SKYROVER/drv_hcsr04.o
 .comment       0x0000000000000000       0x71 obj/SKYROVER/drv_hcsr04.o
 .ARM.attributes
                0x0000000000000000       0x33 obj/SKYROVER/drv_hcsr04.o
 .text          0x0000000000000000        0x0 obj/SKYROVER/drv_hmc5883l.o
 .data          0x0000000000000000        0x0 obj/SKYROVER/drv_hmc5883l.o
 .bss           0x0000000000000000        0x0 obj/SKYROVER/drv_hmc5883l.o
 .text          0x0000000000000000        0x0 obj/SKYROVER/drv_ledring.o
 .data          0x0000000000000000        0x0 obj/SKYROVER/drv_ledring.o
 .bss           0x0000000000000000        0x0 obj/SKYROVER/drv_ledring.o
 .text.ledringDetect
                0x0000000000000000        0xa obj/SKYROVER/drv_ledring.o
 .text.ledringState
                0x0000000000000000       0xbc obj/SKYROVER/drv_ledring.o
 .text.ledringBlink
                0x0000000000000000       0x24 obj/SKYROVER/drv_ledring.o
 .bss.state.9533
                0x0000000000000000        0x1 obj/SKYROVER/drv_ledring.o
 .comment       0x0000000000000000       0x71 obj/SKYROVER/drv_ledring.o
 .ARM.attributes
                0x0000000000000000       0x33 obj/SKYROVER/drv_ledring.o
 .text          0x0000000000000000        0x0 obj/SKYROVER/drv_mma845x.o
 .data          0x0000000000000000        0x0 obj/SKYROVER/drv_mma845x.o
 .bss           0x0000000000000000        0x0 obj/SKYROVER/drv_mma845x.o
 .text          0x0000000000000000        0x0 obj/SKYROVER/drv_mpu3050.o
 .data          0x0000000000000000        0x0 obj/SKYROVER/drv_mpu3050.o
 .bss           0x0000000000000000        0x0 obj/SKYROVER/drv_mpu3050.o
 .text          0x0000000000000000        0x0 obj/SKYROVER/drv_mpu6050.o
 .data          0x0000000000000000        0x0 obj/SKYROVER/drv_mpu6050.o
 .bss           0x0000000000000000        0x0 obj/SKYROVER/drv_mpu6050.o
 .text          0x0000000000000000        0x0 obj/SKYROVER/drv_l3g4200d.o
 .data          0x0000000000000000        0x0 obj/SKYROVER/drv_l3g4200d.o
 .bss           0x0000000000000000        0x0 obj/SKYROVER/drv_l3g4200d.o
 .text          0x0000000000000000        0x0 obj/SKYROVER/drv_pwm.o
 .data          0x0000000000000000        0x0 obj/SKYROVER/drv_pwm.o
 .bss           0x0000000000000000        0x0 obj/SKYROVER/drv_pwm.o
 .text          0x0000000000000000        0x0 obj/SKYROVER/drv_spi.o
 .data          0x0000000000000000        0x0 obj/SKYROVER/drv_spi.o
 .bss           0x0000000000000000        0x0 obj/SKYROVER/drv_spi.o
 .text.spiSelect
                0x0000000000000000       0x14 obj/SKYROVER/drv_spi.o
 .text.spiTransferByte
                0x0000000000000000       0x28 obj/SKYROVER/drv_spi.o
 .text          0x0000000000000000        0x0 obj/SKYROVER/drv_timer.o
 .data          0x0000000000000000        0x0 obj/SKYROVER/drv_timer.o
 .bss           0x0000000000000000        0x0 obj/SKYROVER/drv_timer.o
 .text          0x0000000000000000        0x0 obj/SKYROVER/hexairbot.o
 .data          0x0000000000000000        0x0 obj/SKYROVER/hexairbot.o
 .bss           0x0000000000000000        0x0 obj/SKYROVER/hexairbot.o
 .text          0x0000000000000000       0x14 obj/SKYROVER/startup_stm32f10x_md_gcc.o
 .data          0x0000000000000000        0x0 obj/SKYROVER/startup_stm32f10x_md_gcc.o
 .bss           0x0000000000000000        0x0 obj/SKYROVER/startup_stm32f10x_md_gcc.o
 .text          0x0000000000000000        0x0 obj/SKYROVER/buzzer.o
 .data          0x0000000000000000        0x0 obj/SKYROVER/buzzer.o
 .bss           0x0000000000000000        0x0 obj/SKYROVER/buzzer.o
 .text          0x0000000000000000        0x0 obj/SKYROVER/cli.o
 .data          0x0000000000000000        0x0 obj/SKYROVER/cli.o
 .bss           0x0000000000000000        0x0 obj/SKYROVER/cli.o
 .text          0x0000000000000000        0x0 obj/SKYROVER/config.o
 .data          0x0000000000000000        0x0 obj/SKYROVER/config.o
 .bss           0x0000000000000000        0x0 obj/SKYROVER/config.o
 .text.featureClearAll
                0x0000000000000000        0xc obj/SKYROVER/config.o
 .text          0x0000000000000000        0x0 obj/SKYROVER/gps.o
 .data          0x0000000000000000        0x0 obj/SKYROVER/gps.o
 .bss           0x0000000000000000        0x0 obj/SKYROVER/gps.o
 .text.leadFilter_clear
                0x0000000000000000        0x6 obj/SKYROVER/gps.o
 .text.leadFilter_getPosition
                0x0000000000000000       0x4a obj/SKYROVER/gps.o
 .text._update_checksum
                0x0000000000000000       0x20 obj/SKYROVER/gps.o
 .text          0x0000000000000000        0x0 obj/SKYROVER/imu.o
 .data          0x0000000000000000        0x0 obj/SKYROVER/imu.o
 .bss           0x0000000000000000        0x0 obj/SKYROVER/imu.o
 .text.normalizeV
                0x0000000000000000       0x6a obj/SKYROVER/imu.o
 .text          0x0000000000000000        0x0 obj/SKYROVER/main.o
 .data          0x0000000000000000        0x0 obj/SKYROVER/main.o
 .bss           0x0000000000000000        0x0 obj/SKYROVER/main.o
 .text.dbg_print
                0x0000000000000000       0x1c obj/SKYROVER/main.o
 .text          0x0000000000000000        0x0 obj/SKYROVER/mixer.o
 .data          0x0000000000000000        0x0 obj/SKYROVER/mixer.o
 .bss           0x0000000000000000        0x0 obj/SKYROVER/mixer.o
 .text.servoDirection
                0x0000000000000000       0x1c obj/SKYROVER/mixer.o
 .text          0x0000000000000000        0x0 obj/SKYROVER/mw.o
 .data          0x0000000000000000        0x0 obj/SKYROVER/mw.o
 .bss           0x0000000000000000        0x0 obj/SKYROVER/mw.o
 .text          0x0000000000000000        0x0 obj/SKYROVER/sensors.o
 .data          0x0000000000000000        0x0 obj/SKYROVER/sensors.o
 .bss           0x0000000000000000        0x0 obj/SKYROVER/sensors.o
 .text          0x0000000000000000        0x0 obj/SKYROVER/serial.o
 .data          0x0000000000000000        0x0 obj/SKYROVER/serial.o
 .bss           0x0000000000000000        0x0 obj/SKYROVER/serial.o
 .text          0x0000000000000000        0x0 obj/SKYROVER/sbus.o
 .data          0x0000000000000000        0x0 obj/SKYROVER/sbus.o
 .bss           0x0000000000000000        0x0 obj/SKYROVER/sbus.o
 .text          0x0000000000000000        0x0 obj/SKYROVER/sumd.o
 .data          0x0000000000000000        0x0 obj/SKYROVER/sumd.o
 .bss           0x0000000000000000        0x0 obj/SKYROVER/sumd.o
 .text          0x0000000000000000        0x0 obj/SKYROVER/spektrum.o
 .data          0x0000000000000000        0x0 obj/SKYROVER/spektrum.o
 .bss           0x0000000000000000        0x0 obj/SKYROVER/spektrum.o
 .text          0x0000000000000000        0x0 obj/SKYROVER/telemetry.o
 .data          0x0000000000000000        0x0 obj/SKYROVER/telemetry.o
 .bss           0x0000000000000000        0x0 obj/SKYROVER/telemetry.o
 .text          0x0000000000000000        0x0 obj/SKYROVER/drv_gpio.o
 .data          0x0000000000000000        0x0 obj/SKYROVER/drv_gpio.o
 .bss           0x0000000000000000        0x0 obj/SKYROVER/drv_gpio.o
 .text          0x0000000000000000        0x0 obj/SKYROVER/drv_i2c.o
 .data          0x0000000000000000        0x0 obj/SKYROVER/drv_i2c.o
 .bss           0x0000000000000000        0x0 obj/SKYROVER/drv_i2c.o
 .text          0x0000000000000000        0x0 obj/SKYROVER/drv_i2c_soft.o
 .data          0x0000000000000000        0x0 obj/SKYROVER/drv_i2c_soft.o
 .bss           0x0000000000000000        0x0 obj/SKYROVER/drv_i2c_soft.o
 .comment       0x0000000000000000       0x71 obj/SKYROVER/drv_i2c_soft.o
 .ARM.attributes
                0x0000000000000000       0x33 obj/SKYROVER/drv_i2c_soft.o
 .text          0x0000000000000000        0x0 obj/SKYROVER/drv_system.o
 .data          0x0000000000000000        0x0 obj/SKYROVER/drv_system.o
 .bss           0x0000000000000000        0x0 obj/SKYROVER/drv_system.o
 .text          0x0000000000000000        0x0 obj/SKYROVER/drv_serial.o
 .data          0x0000000000000000        0x0 obj/SKYROVER/drv_serial.o
 .bss           0x0000000000000000        0x0 obj/SKYROVER/drv_serial.o
 .text.serialGetBaudRate
                0x0000000000000000        0x4 obj/SKYROVER/drv_serial.o
 .text          0x0000000000000000        0x0 obj/SKYROVER/drv_softserial.o
 .data          0x0000000000000000        0x0 obj/SKYROVER/drv_softserial.o
 .bss           0x0000000000000000        0x0 obj/SKYROVER/drv_softserial.o
 .text.lookupSoftSerial
                0x0000000000000000       0x10 obj/SKYROVER/drv_softserial.o
 .text.resetSerialTimer
                0x0000000000000000        0xa obj/SKYROVER/drv_softserial.o
 .text.stopSerialTimer
                0x0000000000000000        0xa obj/SKYROVER/drv_softserial.o
 .text.startSerialTimer
                0x0000000000000000        0xa obj/SKYROVER/drv_softserial.o
 .text          0x0000000000000000        0x0 obj/SKYROVER/drv_uart.o
 .data          0x0000000000000000        0x0 obj/SKYROVER/drv_uart.o
 .bss           0x0000000000000000        0x0 obj/SKYROVER/drv_uart.o
 .text          0x0000000000000000        0x0 obj/SKYROVER/drv_vcom.o
 .data          0x0000000000000000        0x0 obj/SKYROVER/drv_vcom.o
 .bss           0x0000000000000000        0x0 obj/SKYROVER/drv_vcom.o
 .text.Hw_VCom_Getch
                0x0000000000000000       0x26 obj/SKYROVER/drv_vcom.o
 .text.Hw_VCom_SetReceiveFuncISR
                0x0000000000000000        0xc obj/SKYROVER/drv_vcom.o
 .text.Hw_VCom_PrintEx
                0x0000000000000000       0x12 obj/SKYROVER/drv_vcom.o
 .text          0x0000000000000000        0x0 obj/SKYROVER/drv_vcom_q.o
 .data          0x0000000000000000        0x0 obj/SKYROVER/drv_vcom_q.o
 .bss           0x0000000000000000        0x0 obj/SKYROVER/drv_vcom_q.o
 .text.HW_VCOM_Q_VAILD
                0x0000000000000000        0x4 obj/SKYROVER/drv_vcom_q.o
 .text.Hw_VCom_Q_PushReady
                0x0000000000000000       0x18 obj/SKYROVER/drv_vcom_q.o
 .text.Hw_VCom_Q_Pop
                0x0000000000000000       0x54 obj/SKYROVER/drv_vcom_q.o
 .text          0x0000000000000000        0x0 obj/SKYROVER/printf.o
 .data          0x0000000000000000        0x0 obj/SKYROVER/printf.o
 .bss           0x0000000000000000        0x0 obj/SKYROVER/printf.o
 .text.putcp    0x0000000000000000        0xa obj/SKYROVER/printf.o
 .text.tfp_sprintf
                0x0000000000000000       0x2c obj/SKYROVER/printf.o
 .text          0x0000000000000000        0x0 obj/SKYROVER/utils.o
 .data          0x0000000000000000        0x0 obj/SKYROVER/utils.o
 .bss           0x0000000000000000        0x0 obj/SKYROVER/utils.o
 .text          0x0000000000000000        0x0 obj/SKYROVER/system_stm32f10x.o
 .data          0x0000000000000000        0x0 obj/SKYROVER/system_stm32f10x.o
 .bss           0x0000000000000000        0x0 obj/SKYROVER/system_stm32f10x.o
 .text          0x0000000000000000        0x0 obj/SKYROVER/misc.o
 .data          0x0000000000000000        0x0 obj/SKYROVER/misc.o
 .bss           0x0000000000000000        0x0 obj/SKYROVER/misc.o
 .text.NVIC_SetVectorTable
                0x0000000000000000       0x14 obj/SKYROVER/misc.o
 .text.NVIC_SystemLPConfig
                0x0000000000000000       0x18 obj/SKYROVER/misc.o
 .text.SysTick_CLKSourceConfig
                0x0000000000000000       0x18 obj/SKYROVER/misc.o
 .text          0x0000000000000000        0x0 obj/SKYROVER/stm32f10x_adc.o
 .data          0x0000000000000000        0x0 obj/SKYROVER/stm32f10x_adc.o
 .bss           0x0000000000000000        0x0 obj/SKYROVER/stm32f10x_adc.o
 .text.ADC_DeInit
                0x0000000000000000       0x5c obj/SKYROVER/stm32f10x_adc.o
 .text.ADC_StructInit
                0x0000000000000000       0x12 obj/SKYROVER/stm32f10x_adc.o
 .text.ADC_ITConfig
                0x0000000000000000       0x12 obj/SKYROVER/stm32f10x_adc.o
 .text.ADC_GetSoftwareStartConvStatus
                0x0000000000000000        0x8 obj/SKYROVER/stm32f10x_adc.o
 .text.ADC_DiscModeChannelCountConfig
                0x0000000000000000       0x10 obj/SKYROVER/stm32f10x_adc.o
 .text.ADC_DiscModeCmd
                0x0000000000000000       0x12 obj/SKYROVER/stm32f10x_adc.o
 .text.ADC_ExternalTrigConvCmd
                0x0000000000000000       0x12 obj/SKYROVER/stm32f10x_adc.o
 .text.ADC_GetConversionValue
                0x0000000000000000        0x6 obj/SKYROVER/stm32f10x_adc.o
 .text.ADC_GetDualModeConversionValue
                0x0000000000000000        0xc obj/SKYROVER/stm32f10x_adc.o
 .text.ADC_AutoInjectedConvCmd
                0x0000000000000000       0x12 obj/SKYROVER/stm32f10x_adc.o
 .text.ADC_InjectedDiscModeCmd
                0x0000000000000000       0x12 obj/SKYROVER/stm32f10x_adc.o
 .text.ADC_ExternalTrigInjectedConvConfig
                0x0000000000000000        0xc obj/SKYROVER/stm32f10x_adc.o
 .text.ADC_ExternalTrigInjectedConvCmd
                0x0000000000000000       0x12 obj/SKYROVER/stm32f10x_adc.o
 .text.ADC_SoftwareStartInjectedConvCmd
                0x0000000000000000       0x12 obj/SKYROVER/stm32f10x_adc.o
 .text.ADC_GetSoftwareStartInjectedConvCmdStatus
                0x0000000000000000        0x8 obj/SKYROVER/stm32f10x_adc.o
 .text.ADC_InjectedChannelConfig
                0x0000000000000000       0x5c obj/SKYROVER/stm32f10x_adc.o
 .text.ADC_InjectedSequencerLengthConfig
                0x0000000000000000       0x10 obj/SKYROVER/stm32f10x_adc.o
 .text.ADC_SetInjectedOffset
                0x0000000000000000       0x16 obj/SKYROVER/stm32f10x_adc.o
 .text.ADC_GetInjectedConversionValue
                0x0000000000000000       0x1a obj/SKYROVER/stm32f10x_adc.o
 .text.ADC_AnalogWatchdogCmd
                0x0000000000000000       0x10 obj/SKYROVER/stm32f10x_adc.o
 .text.ADC_AnalogWatchdogThresholdsConfig
                0x0000000000000000        0x6 obj/SKYROVER/stm32f10x_adc.o
 .text.ADC_AnalogWatchdogSingleChannelConfig
                0x0000000000000000        0xc obj/SKYROVER/stm32f10x_adc.o
 .text.ADC_TempSensorVrefintCmd
                0x0000000000000000       0x18 obj/SKYROVER/stm32f10x_adc.o
 .text.ADC_GetFlagStatus
                0x0000000000000000        0xc obj/SKYROVER/stm32f10x_adc.o
 .text.ADC_ClearFlag
                0x0000000000000000        0x6 obj/SKYROVER/stm32f10x_adc.o
 .text.ADC_GetITStatus
                0x0000000000000000       0x16 obj/SKYROVER/stm32f10x_adc.o
 .text.ADC_ClearITPendingBit
                0x0000000000000000        0x8 obj/SKYROVER/stm32f10x_adc.o
 .text          0x0000000000000000        0x0 obj/SKYROVER/stm32f10x_bkp.o
 .data          0x0000000000000000        0x0 obj/SKYROVER/stm32f10x_bkp.o
 .bss           0x0000000000000000        0x0 obj/SKYROVER/stm32f10x_bkp.o
 .text.BKP_DeInit
                0x0000000000000000       0x12 obj/SKYROVER/stm32f10x_bkp.o
 .text.BKP_TamperPinLevelConfig
                0x0000000000000000        0xc obj/SKYROVER/stm32f10x_bkp.o
 .text.BKP_TamperPinCmd
                0x0000000000000000        0xc obj/SKYROVER/stm32f10x_bkp.o
 .text.BKP_ITConfig
                0x0000000000000000        0xc obj/SKYROVER/stm32f10x_bkp.o
 .text.BKP_RTCOutputConfig
                0x0000000000000000       0x18 obj/SKYROVER/stm32f10x_bkp.o
 .text.BKP_SetRTCCalibrationValue
                0x0000000000000000       0x18 obj/SKYROVER/stm32f10x_bkp.o
 .text.BKP_WriteBackupRegister
                0x0000000000000000       0x1c obj/SKYROVER/stm32f10x_bkp.o
 .text.BKP_ReadBackupRegister
                0x0000000000000000       0x20 obj/SKYROVER/stm32f10x_bkp.o
 .text.BKP_GetFlagStatus
                0x0000000000000000        0xc obj/SKYROVER/stm32f10x_bkp.o
 .text.BKP_ClearFlag
                0x0000000000000000       0x14 obj/SKYROVER/stm32f10x_bkp.o
 .text.BKP_GetITStatus
                0x0000000000000000        0xc obj/SKYROVER/stm32f10x_bkp.o
 .text.BKP_ClearITPendingBit
                0x0000000000000000       0x14 obj/SKYROVER/stm32f10x_bkp.o
 .comment       0x0000000000000000       0x71 obj/SKYROVER/stm32f10x_bkp.o
 .ARM.attributes
                0x0000000000000000       0x33 obj/SKYROVER/stm32f10x_bkp.o
 .text          0x0000000000000000        0x0 obj/SKYROVER/stm32f10x_can.o
 .data          0x0000000000000000        0x0 obj/SKYROVER/stm32f10x_can.o
 .bss           0x0000000000000000        0x0 obj/SKYROVER/stm32f10x_can.o
 .text.CAN_DeInit
                0x0000000000000000       0x34 obj/SKYROVER/stm32f10x_can.o
 .text.CAN_Init
                0x0000000000000000       0xd6 obj/SKYROVER/stm32f10x_can.o
 .text.CAN_FilterInit
                0x0000000000000000       0xe0 obj/SKYROVER/stm32f10x_can.o
 .text.CAN_StructInit
                0x0000000000000000       0x20 obj/SKYROVER/stm32f10x_can.o
 .text.CAN_SlaveStartBank
                0x0000000000000000       0x3c obj/SKYROVER/stm32f10x_can.o
 .text.CAN_DBGFreeze
                0x0000000000000000       0x12 obj/SKYROVER/stm32f10x_can.o
 .text.CAN_TTComModeCmd
                0x0000000000000000       0x58 obj/SKYROVER/stm32f10x_can.o
 .text.CAN_Transmit
                0x0000000000000000       0xc2 obj/SKYROVER/stm32f10x_can.o
 .text.CAN_TransmitStatus
                0x0000000000000000       0x4c obj/SKYROVER/stm32f10x_can.o
 .text.CAN_CancelTransmit
                0x0000000000000000       0x26 obj/SKYROVER/stm32f10x_can.o
 .text.CAN_Receive
                0x0000000000000000       0x92 obj/SKYROVER/stm32f10x_can.o
 .text.CAN_FIFORelease
                0x0000000000000000       0x16 obj/SKYROVER/stm32f10x_can.o
 .text.CAN_MessagePending
                0x0000000000000000       0x16 obj/SKYROVER/stm32f10x_can.o
 .text.CAN_OperatingModeRequest
                0x0000000000000000       0x88 obj/SKYROVER/stm32f10x_can.o
 .text.CAN_Sleep
                0x0000000000000000       0x1a obj/SKYROVER/stm32f10x_can.o
 .text.CAN_WakeUp
                0x0000000000000000       0x22 obj/SKYROVER/stm32f10x_can.o
 .text.CAN_GetLastErrorCode
                0x0000000000000000        0x8 obj/SKYROVER/stm32f10x_can.o
 .text.CAN_GetReceiveErrorCounter
                0x0000000000000000        0x6 obj/SKYROVER/stm32f10x_can.o
 .text.CAN_GetLSBTransmitErrorCounter
                0x0000000000000000        0x8 obj/SKYROVER/stm32f10x_can.o
 .text.CAN_ITConfig
                0x0000000000000000       0x10 obj/SKYROVER/stm32f10x_can.o
 .text.CAN_GetFlagStatus
                0x0000000000000000       0x30 obj/SKYROVER/stm32f10x_can.o
 .text.CAN_ClearFlag
                0x0000000000000000       0x30 obj/SKYROVER/stm32f10x_can.o
 .text.CAN_GetITStatus
                0x0000000000000000       0xc8 obj/SKYROVER/stm32f10x_can.o
 .text.CAN_ClearITPendingBit
                0x0000000000000000       0x7c obj/SKYROVER/stm32f10x_can.o
 .comment       0x0000000000000000       0x71 obj/SKYROVER/stm32f10x_can.o
 .ARM.attributes
                0x0000000000000000       0x33 obj/SKYROVER/stm32f10x_can.o
 .text          0x0000000000000000        0x0 obj/SKYROVER/stm32f10x_cec.o
 .data          0x0000000000000000        0x0 obj/SKYROVER/stm32f10x_cec.o
 .bss           0x0000000000000000        0x0 obj/SKYROVER/stm32f10x_cec.o
 .text.CEC_DeInit
                0x0000000000000000       0x1a obj/SKYROVER/stm32f10x_cec.o
 .text.CEC_Init
                0x0000000000000000       0x1c obj/SKYROVER/stm32f10x_cec.o
 .text.CEC_Cmd  0x0000000000000000       0x18 obj/SKYROVER/stm32f10x_cec.o
 .text.CEC_ITConfig
                0x0000000000000000        0xc obj/SKYROVER/stm32f10x_cec.o
 .text.CEC_OwnAddressConfig
                0x0000000000000000        0xc obj/SKYROVER/stm32f10x_cec.o
 .text.CEC_SetPrescaler
                0x0000000000000000        0xc obj/SKYROVER/stm32f10x_cec.o
 .text.CEC_SendDataByte
                0x0000000000000000        0xc obj/SKYROVER/stm32f10x_cec.o
 .text.CEC_ReceiveDataByte
                0x0000000000000000        0xc obj/SKYROVER/stm32f10x_cec.o
 .text.CEC_StartOfMessage
                0x0000000000000000        0xc obj/SKYROVER/stm32f10x_cec.o
 .text.CEC_EndOfMessageCmd
                0x0000000000000000        0xc obj/SKYROVER/stm32f10x_cec.o
 .text.CEC_GetFlagStatus
                0x0000000000000000       0x24 obj/SKYROVER/stm32f10x_cec.o
 .text.CEC_ClearFlag
                0x0000000000000000       0x1c obj/SKYROVER/stm32f10x_cec.o
 .text.CEC_GetITStatus
                0x0000000000000000       0x14 obj/SKYROVER/stm32f10x_cec.o
 .text.CEC_ClearITPendingBit
                0x0000000000000000       0x1c obj/SKYROVER/stm32f10x_cec.o
 .comment       0x0000000000000000       0x71 obj/SKYROVER/stm32f10x_cec.o
 .ARM.attributes
                0x0000000000000000       0x33 obj/SKYROVER/stm32f10x_cec.o
 .text          0x0000000000000000        0x0 obj/SKYROVER/stm32f10x_crc.o
 .data          0x0000000000000000        0x0 obj/SKYROVER/stm32f10x_crc.o
 .bss           0x0000000000000000        0x0 obj/SKYROVER/stm32f10x_crc.o
 .text.CRC_ResetDR
                0x0000000000000000        0xc obj/SKYROVER/stm32f10x_crc.o
 .text.CRC_CalcCRC
                0x0000000000000000        0xc obj/SKYROVER/stm32f10x_crc.o
 .text.CRC_CalcBlockCRC
                0x0000000000000000       0x1c obj/SKYROVER/stm32f10x_crc.o
 .text.CRC_GetCRC
                0x0000000000000000        0xc obj/SKYROVER/stm32f10x_crc.o
 .text.CRC_SetIDRegister
                0x0000000000000000        0xc obj/SKYROVER/stm32f10x_crc.o
 .text.CRC_GetIDRegister
                0x0000000000000000        0xc obj/SKYROVER/stm32f10x_crc.o
 .comment       0x0000000000000000       0x71 obj/SKYROVER/stm32f10x_crc.o
 .ARM.attributes
                0x0000000000000000       0x33 obj/SKYROVER/stm32f10x_crc.o
 .text          0x0000000000000000        0x0 obj/SKYROVER/stm32f10x_dac.o
 .data          0x0000000000000000        0x0 obj/SKYROVER/stm32f10x_dac.o
 .bss           0x0000000000000000        0x0 obj/SKYROVER/stm32f10x_dac.o
 .text.DAC_DeInit
                0x0000000000000000       0x1a obj/SKYROVER/stm32f10x_dac.o
 .text.DAC_Init
                0x0000000000000000       0x2c obj/SKYROVER/stm32f10x_dac.o
 .text.DAC_StructInit
                0x0000000000000000        0xc obj/SKYROVER/stm32f10x_dac.o
 .text.DAC_Cmd  0x0000000000000000       0x20 obj/SKYROVER/stm32f10x_dac.o
 .text.DAC_DMACmd
                0x0000000000000000       0x20 obj/SKYROVER/stm32f10x_dac.o
 .text.DAC_SoftwareTriggerCmd
                0x0000000000000000       0x20 obj/SKYROVER/stm32f10x_dac.o
 .text.DAC_DualSoftwareTriggerCmd
                0x0000000000000000       0x18 obj/SKYROVER/stm32f10x_dac.o
 .text.DAC_WaveGenerationCmd
                0x0000000000000000       0x1c obj/SKYROVER/stm32f10x_dac.o
 .text.DAC_SetChannel1Data
                0x0000000000000000       0x20 obj/SKYROVER/stm32f10x_dac.o
 .text.DAC_SetChannel2Data
                0x0000000000000000       0x20 obj/SKYROVER/stm32f10x_dac.o
 .text.DAC_SetDualChannelData
                0x0000000000000000       0x18 obj/SKYROVER/stm32f10x_dac.o
 .text.DAC_GetDataOutputValue
                0x0000000000000000       0x24 obj/SKYROVER/stm32f10x_dac.o
 .comment       0x0000000000000000       0x71 obj/SKYROVER/stm32f10x_dac.o
 .ARM.attributes
                0x0000000000000000       0x33 obj/SKYROVER/stm32f10x_dac.o
 .text          0x0000000000000000        0x0 obj/SKYROVER/stm32f10x_dbgmcu.o
 .data          0x0000000000000000        0x0 obj/SKYROVER/stm32f10x_dbgmcu.o
 .bss           0x0000000000000000        0x0 obj/SKYROVER/stm32f10x_dbgmcu.o
 .text.DBGMCU_GetREVID
                0x0000000000000000        0xc obj/SKYROVER/stm32f10x_dbgmcu.o
 .text.DBGMCU_GetDEVID
                0x0000000000000000       0x10 obj/SKYROVER/stm32f10x_dbgmcu.o
 .text.DBGMCU_Config
                0x0000000000000000       0x18 obj/SKYROVER/stm32f10x_dbgmcu.o
 .comment       0x0000000000000000       0x71 obj/SKYROVER/stm32f10x_dbgmcu.o
 .ARM.attributes
                0x0000000000000000       0x33 obj/SKYROVER/stm32f10x_dbgmcu.o
 .text          0x0000000000000000        0x0 obj/SKYROVER/stm32f10x_dma.o
 .data          0x0000000000000000        0x0 obj/SKYROVER/stm32f10x_dma.o
 .bss           0x0000000000000000        0x0 obj/SKYROVER/stm32f10x_dma.o
 .text.DMA_GetFlagStatus
                0x0000000000000000       0x1c obj/SKYROVER/stm32f10x_dma.o
 .text.DMA_ClearFlag
                0x0000000000000000       0x14 obj/SKYROVER/stm32f10x_dma.o
 .text.DMA_GetITStatus
                0x0000000000000000       0x1c obj/SKYROVER/stm32f10x_dma.o
 .text          0x0000000000000000        0x0 obj/SKYROVER/stm32f10x_exti.o
 .data          0x0000000000000000        0x0 obj/SKYROVER/stm32f10x_exti.o
 .bss           0x0000000000000000        0x0 obj/SKYROVER/stm32f10x_exti.o
 .text.EXTI_DeInit
                0x0000000000000000       0x1c obj/SKYROVER/stm32f10x_exti.o
 .text.EXTI_StructInit
                0x0000000000000000        0xe obj/SKYROVER/stm32f10x_exti.o
 .text.EXTI_GenerateSWInterrupt
                0x0000000000000000       0x10 obj/SKYROVER/stm32f10x_exti.o
 .text.EXTI_GetFlagStatus
                0x0000000000000000       0x14 obj/SKYROVER/stm32f10x_exti.o
 .text.EXTI_ClearFlag
                0x0000000000000000        0xc obj/SKYROVER/stm32f10x_exti.o
 .text          0x0000000000000000        0x0 obj/SKYROVER/stm32f10x_flash.o
 .data          0x0000000000000000        0x0 obj/SKYROVER/stm32f10x_flash.o
 .bss           0x0000000000000000        0x0 obj/SKYROVER/stm32f10x_flash.o
 .text.FLASH_SetLatency
                0x0000000000000000       0x14 obj/SKYROVER/stm32f10x_flash.o
 .text.FLASH_HalfCycleAccessCmd
                0x0000000000000000       0x18 obj/SKYROVER/stm32f10x_flash.o
 .text.FLASH_PrefetchBufferCmd
                0x0000000000000000       0x18 obj/SKYROVER/stm32f10x_flash.o
 .text.FLASH_UnlockBank1
                0x0000000000000000       0x18 obj/SKYROVER/stm32f10x_flash.o
 .text.FLASH_LockBank1
                0x0000000000000000       0x10 obj/SKYROVER/stm32f10x_flash.o
 .text.FLASH_GetUserOptionByte
                0x0000000000000000        0xc obj/SKYROVER/stm32f10x_flash.o
 .text.FLASH_GetWriteProtectionOptionByte
                0x0000000000000000        0xc obj/SKYROVER/stm32f10x_flash.o
 .text.FLASH_GetReadOutProtectionStatus
                0x0000000000000000       0x10 obj/SKYROVER/stm32f10x_flash.o
 .text.FLASH_GetPrefetchBufferStatus
                0x0000000000000000       0x10 obj/SKYROVER/stm32f10x_flash.o
 .text.FLASH_ITConfig
                0x0000000000000000       0x18 obj/SKYROVER/stm32f10x_flash.o
 .text.FLASH_GetFlagStatus
                0x0000000000000000       0x20 obj/SKYROVER/stm32f10x_flash.o
 .text.FLASH_GetStatus
                0x0000000000000000       0x28 obj/SKYROVER/stm32f10x_flash.o
 .text.FLASH_EraseAllPages
                0x0000000000000000       0x38 obj/SKYROVER/stm32f10x_flash.o
 .text.FLASH_EraseOptionBytes
                0x0000000000000000       0x7c obj/SKYROVER/stm32f10x_flash.o
 .text.FLASH_ProgramHalfWord
                0x0000000000000000       0x38 obj/SKYROVER/stm32f10x_flash.o
 .text.FLASH_ProgramOptionByteData
                0x0000000000000000       0x48 obj/SKYROVER/stm32f10x_flash.o
 .text.FLASH_EnableWriteProtection
                0x0000000000000000       0xa4 obj/SKYROVER/stm32f10x_flash.o
 .text.FLASH_ReadOutProtection
                0x0000000000000000       0x8c obj/SKYROVER/stm32f10x_flash.o
 .text.FLASH_UserOptionByteConfig
                0x0000000000000000       0x58 obj/SKYROVER/stm32f10x_flash.o
 .text.FLASH_WaitForLastBank1Operation
                0x0000000000000000       0x22 obj/SKYROVER/stm32f10x_flash.o
 .text.FLASH_EraseAllBank1Pages
                0x0000000000000000       0x38 obj/SKYROVER/stm32f10x_flash.o
 .text          0x0000000000000000        0x0 obj/SKYROVER/stm32f10x_fsmc.o
 .data          0x0000000000000000        0x0 obj/SKYROVER/stm32f10x_fsmc.o
 .bss           0x0000000000000000        0x0 obj/SKYROVER/stm32f10x_fsmc.o
 .text.FSMC_NORSRAMDeInit
                0x0000000000000000       0x2e obj/SKYROVER/stm32f10x_fsmc.o
 .text.FSMC_NANDDeInit
                0x0000000000000000       0x24 obj/SKYROVER/stm32f10x_fsmc.o
 .text.FSMC_PCCARDDeInit
                0x0000000000000000       0x1c obj/SKYROVER/stm32f10x_fsmc.o
 .text.FSMC_NORSRAMInit
                0x0000000000000000       0xc8 obj/SKYROVER/stm32f10x_fsmc.o
 .text.FSMC_NANDInit
                0x0000000000000000       0x68 obj/SKYROVER/stm32f10x_fsmc.o
 .text.FSMC_PCCARDInit
                0x0000000000000000       0x68 obj/SKYROVER/stm32f10x_fsmc.o
 .text.FSMC_NORSRAMStructInit
                0x0000000000000000       0x4e obj/SKYROVER/stm32f10x_fsmc.o
 .text.FSMC_NANDStructInit
                0x0000000000000000       0x2a obj/SKYROVER/stm32f10x_fsmc.o
 .text.FSMC_PCCARDStructInit
                0x0000000000000000       0x2a obj/SKYROVER/stm32f10x_fsmc.o
 .text.FSMC_NORSRAMCmd
                0x0000000000000000       0x20 obj/SKYROVER/stm32f10x_fsmc.o
 .text.FSMC_NANDCmd
                0x0000000000000000       0x34 obj/SKYROVER/stm32f10x_fsmc.o
 .text.FSMC_PCCARDCmd
                0x0000000000000000       0x20 obj/SKYROVER/stm32f10x_fsmc.o
 .text.FSMC_NANDECCCmd
                0x0000000000000000       0x34 obj/SKYROVER/stm32f10x_fsmc.o
 .text.FSMC_GetECC
                0x0000000000000000       0x14 obj/SKYROVER/stm32f10x_fsmc.o
 .text.FSMC_ITConfig
                0x0000000000000000       0x44 obj/SKYROVER/stm32f10x_fsmc.o
 .text.FSMC_GetFlagStatus
                0x0000000000000000       0x2c obj/SKYROVER/stm32f10x_fsmc.o
 .text.FSMC_ClearFlag
                0x0000000000000000       0x2c obj/SKYROVER/stm32f10x_fsmc.o
 .text.FSMC_GetITStatus
                0x0000000000000000       0x34 obj/SKYROVER/stm32f10x_fsmc.o
 .text.FSMC_ClearITPendingBit
                0x0000000000000000       0x2c obj/SKYROVER/stm32f10x_fsmc.o
 .comment       0x0000000000000000       0x71 obj/SKYROVER/stm32f10x_fsmc.o
 .ARM.attributes
                0x0000000000000000       0x33 obj/SKYROVER/stm32f10x_fsmc.o
 .text          0x0000000000000000        0x0 obj/SKYROVER/stm32f10x_gpio.o
 .data          0x0000000000000000        0x0 obj/SKYROVER/stm32f10x_gpio.o
 .bss           0x0000000000000000        0x0 obj/SKYROVER/stm32f10x_gpio.o
 .text.GPIO_DeInit
                0x0000000000000000       0xac obj/SKYROVER/stm32f10x_gpio.o
 .text.GPIO_AFIODeInit
                0x0000000000000000       0x16 obj/SKYROVER/stm32f10x_gpio.o
 .text.GPIO_StructInit
                0x0000000000000000       0x10 obj/SKYROVER/stm32f10x_gpio.o
 .text.GPIO_ReadInputDataBit
                0x0000000000000000        0xc obj/SKYROVER/stm32f10x_gpio.o
 .text.GPIO_ReadInputData
                0x0000000000000000        0x6 obj/SKYROVER/stm32f10x_gpio.o
 .text.GPIO_ReadOutputDataBit
                0x0000000000000000        0xc obj/SKYROVER/stm32f10x_gpio.o
 .text.GPIO_ReadOutputData
                0x0000000000000000        0x6 obj/SKYROVER/stm32f10x_gpio.o
 .text.GPIO_WriteBit
                0x0000000000000000        0xa obj/SKYROVER/stm32f10x_gpio.o
 .text.GPIO_Write
                0x0000000000000000        0x4 obj/SKYROVER/stm32f10x_gpio.o
 .text.GPIO_PinLockConfig
                0x0000000000000000       0x10 obj/SKYROVER/stm32f10x_gpio.o
 .text.GPIO_EventOutputConfig
                0x0000000000000000       0x1c obj/SKYROVER/stm32f10x_gpio.o
 .text.GPIO_EventOutputCmd
                0x0000000000000000        0xc obj/SKYROVER/stm32f10x_gpio.o
 .text.GPIO_PinRemapConfig
                0x0000000000000000       0x60 obj/SKYROVER/stm32f10x_gpio.o
 .text.GPIO_EXTILineConfig
                0x0000000000000000       0x2a obj/SKYROVER/stm32f10x_gpio.o
 .text.GPIO_ETH_MediaInterfaceConfig
                0x0000000000000000        0xc obj/SKYROVER/stm32f10x_gpio.o
 .text          0x0000000000000000        0x0 obj/SKYROVER/stm32f10x_i2c.o
 .data          0x0000000000000000        0x0 obj/SKYROVER/stm32f10x_i2c.o
 .bss           0x0000000000000000        0x0 obj/SKYROVER/stm32f10x_i2c.o
 .text.I2C_DMACmd
                0x0000000000000000       0x18 obj/SKYROVER/stm32f10x_i2c.o
 .text.I2C_DMALastTransferCmd
                0x0000000000000000       0x18 obj/SKYROVER/stm32f10x_i2c.o
 .text.I2C_OwnAddress2Config
                0x0000000000000000       0x12 obj/SKYROVER/stm32f10x_i2c.o
 .text.I2C_DualAddressCmd
                0x0000000000000000       0x18 obj/SKYROVER/stm32f10x_i2c.o
 .text.I2C_GeneralCallCmd
                0x0000000000000000       0x18 obj/SKYROVER/stm32f10x_i2c.o
 .text.I2C_ReadRegister
                0x0000000000000000       0x18 obj/SKYROVER/stm32f10x_i2c.o
 .text.I2C_SoftwareResetCmd
                0x0000000000000000       0x18 obj/SKYROVER/stm32f10x_i2c.o
 .text.I2C_NACKPositionConfig
                0x0000000000000000       0x1c obj/SKYROVER/stm32f10x_i2c.o
 .text.I2C_SMBusAlertConfig
                0x0000000000000000       0x1c obj/SKYROVER/stm32f10x_i2c.o
 .text.I2C_TransmitPEC
                0x0000000000000000       0x18 obj/SKYROVER/stm32f10x_i2c.o
 .text.I2C_PECPositionConfig
                0x0000000000000000       0x1c obj/SKYROVER/stm32f10x_i2c.o
 .text.I2C_CalculatePEC
                0x0000000000000000       0x18 obj/SKYROVER/stm32f10x_i2c.o
 .text.I2C_GetPEC
                0x0000000000000000        0x8 obj/SKYROVER/stm32f10x_i2c.o
 .text.I2C_ARPCmd
                0x0000000000000000       0x18 obj/SKYROVER/stm32f10x_i2c.o
 .text.I2C_StretchClockCmd
                0x0000000000000000       0x18 obj/SKYROVER/stm32f10x_i2c.o
 .text.I2C_FastModeDutyCycleConfig
                0x0000000000000000       0x1c obj/SKYROVER/stm32f10x_i2c.o
 .text.I2C_CheckEvent
                0x0000000000000000       0x18 obj/SKYROVER/stm32f10x_i2c.o
 .text.I2C_GetLastEvent
                0x0000000000000000       0x10 obj/SKYROVER/stm32f10x_i2c.o
 .text.I2C_GetFlagStatus
                0x0000000000000000       0x34 obj/SKYROVER/stm32f10x_i2c.o
 .text.I2C_ClearFlag
                0x0000000000000000        0x8 obj/SKYROVER/stm32f10x_i2c.o
 .text.I2C_GetITStatus
                0x0000000000000000       0x1c obj/SKYROVER/stm32f10x_i2c.o
 .text.I2C_ClearITPendingBit
                0x0000000000000000        0x8 obj/SKYROVER/stm32f10x_i2c.o
 .text          0x0000000000000000        0x0 obj/SKYROVER/stm32f10x_iwdg.o
 .data          0x0000000000000000        0x0 obj/SKYROVER/stm32f10x_iwdg.o
 .bss           0x0000000000000000        0x0 obj/SKYROVER/stm32f10x_iwdg.o
 .text.IWDG_WriteAccessCmd
                0x0000000000000000        0xc obj/SKYROVER/stm32f10x_iwdg.o
 .text.IWDG_SetPrescaler
                0x0000000000000000        0xc obj/SKYROVER/stm32f10x_iwdg.o
 .text.IWDG_SetReload
                0x0000000000000000        0xc obj/SKYROVER/stm32f10x_iwdg.o
 .text.IWDG_ReloadCounter
                0x0000000000000000       0x10 obj/SKYROVER/stm32f10x_iwdg.o
 .text.IWDG_Enable
                0x0000000000000000       0x10 obj/SKYROVER/stm32f10x_iwdg.o
 .text.IWDG_GetFlagStatus
                0x0000000000000000       0x14 obj/SKYROVER/stm32f10x_iwdg.o
 .comment       0x0000000000000000       0x71 obj/SKYROVER/stm32f10x_iwdg.o
 .ARM.attributes
                0x0000000000000000       0x33 obj/SKYROVER/stm32f10x_iwdg.o
 .text          0x0000000000000000        0x0 obj/SKYROVER/stm32f10x_pwr.o
 .data          0x0000000000000000        0x0 obj/SKYROVER/stm32f10x_pwr.o
 .bss           0x0000000000000000        0x0 obj/SKYROVER/stm32f10x_pwr.o
 .text.PWR_DeInit
                0x0000000000000000       0x1a obj/SKYROVER/stm32f10x_pwr.o
 .text.PWR_BackupAccessCmd
                0x0000000000000000        0xc obj/SKYROVER/stm32f10x_pwr.o
 .text.PWR_PVDCmd
                0x0000000000000000        0xc obj/SKYROVER/stm32f10x_pwr.o
 .text.PWR_PVDLevelConfig
                0x0000000000000000       0x14 obj/SKYROVER/stm32f10x_pwr.o
 .text.PWR_WakeUpPinCmd
                0x0000000000000000        0xc obj/SKYROVER/stm32f10x_pwr.o
 .text.PWR_EnterSTOPMode
                0x0000000000000000       0x34 obj/SKYROVER/stm32f10x_pwr.o
 .text.PWR_EnterSTANDBYMode
                0x0000000000000000       0x28 obj/SKYROVER/stm32f10x_pwr.o
 .text.PWR_GetFlagStatus
                0x0000000000000000       0x14 obj/SKYROVER/stm32f10x_pwr.o
 .text.PWR_ClearFlag
                0x0000000000000000       0x10 obj/SKYROVER/stm32f10x_pwr.o
 .comment       0x0000000000000000       0x71 obj/SKYROVER/stm32f10x_pwr.o
 .ARM.attributes
                0x0000000000000000       0x33 obj/SKYROVER/stm32f10x_pwr.o
 .text          0x0000000000000000        0x0 obj/SKYROVER/stm32f10x_rcc.o
 .data          0x0000000000000000        0x0 obj/SKYROVER/stm32f10x_rcc.o
 .bss           0x0000000000000000        0x0 obj/SKYROVER/stm32f10x_rcc.o
 .text.RCC_DeInit
                0x0000000000000000       0x40 obj/SKYROVER/stm32f10x_rcc.o
 .text.RCC_HSEConfig
                0x0000000000000000       0x38 obj/SKYROVER/stm32f10x_rcc.o
 .text.RCC_AdjustHSICalibrationValue
                0x0000000000000000       0x14 obj/SKYROVER/stm32f10x_rcc.o
 .text.RCC_HSICmd
                0x0000000000000000        0xc obj/SKYROVER/stm32f10x_rcc.o
 .text.RCC_PLLConfig
                0x0000000000000000       0x14 obj/SKYROVER/stm32f10x_rcc.o
 .text.RCC_PLLCmd
                0x0000000000000000        0xc obj/SKYROVER/stm32f10x_rcc.o
 .text.RCC_SYSCLKConfig
                0x0000000000000000       0x14 obj/SKYROVER/stm32f10x_rcc.o
 .text.RCC_GetSYSCLKSource
                0x0000000000000000       0x10 obj/SKYROVER/stm32f10x_rcc.o
 .text.RCC_HCLKConfig
                0x0000000000000000       0x14 obj/SKYROVER/stm32f10x_rcc.o
 .text.RCC_PCLK1Config
                0x0000000000000000       0x14 obj/SKYROVER/stm32f10x_rcc.o
 .text.RCC_PCLK2Config
                0x0000000000000000       0x14 obj/SKYROVER/stm32f10x_rcc.o
 .text.RCC_ITConfig
                0x0000000000000000       0x18 obj/SKYROVER/stm32f10x_rcc.o
 .text.RCC_ADCCLKConfig
                0x0000000000000000       0x14 obj/SKYROVER/stm32f10x_rcc.o
 .text.RCC_LSEConfig
                0x0000000000000000       0x20 obj/SKYROVER/stm32f10x_rcc.o
 .text.RCC_LSICmd
                0x0000000000000000        0xc obj/SKYROVER/stm32f10x_rcc.o
 .text.RCC_RTCCLKConfig
                0x0000000000000000       0x10 obj/SKYROVER/stm32f10x_rcc.o
 .text.RCC_RTCCLKCmd
                0x0000000000000000        0xc obj/SKYROVER/stm32f10x_rcc.o
 .text.RCC_BackupResetCmd
                0x0000000000000000        0xc obj/SKYROVER/stm32f10x_rcc.o
 .text.RCC_ClockSecuritySystemCmd
                0x0000000000000000        0xc obj/SKYROVER/stm32f10x_rcc.o
 .text.RCC_MCOConfig
                0x0000000000000000        0xc obj/SKYROVER/stm32f10x_rcc.o
 .text.RCC_GetFlagStatus
                0x0000000000000000       0x28 obj/SKYROVER/stm32f10x_rcc.o
 .text.RCC_WaitForHSEStartUp
                0x0000000000000000       0x30 obj/SKYROVER/stm32f10x_rcc.o
 .text.RCC_GetITStatus
                0x0000000000000000       0x14 obj/SKYROVER/stm32f10x_rcc.o
 .text.RCC_ClearITPendingBit
                0x0000000000000000        0xc obj/SKYROVER/stm32f10x_rcc.o
 .text          0x0000000000000000        0x0 obj/SKYROVER/stm32f10x_rtc.o
 .data          0x0000000000000000        0x0 obj/SKYROVER/stm32f10x_rtc.o
 .bss           0x0000000000000000        0x0 obj/SKYROVER/stm32f10x_rtc.o
 .text.RTC_ITConfig
                0x0000000000000000       0x18 obj/SKYROVER/stm32f10x_rtc.o
 .text.RTC_EnterConfigMode
                0x0000000000000000       0x14 obj/SKYROVER/stm32f10x_rtc.o
 .text.RTC_ExitConfigMode
                0x0000000000000000       0x14 obj/SKYROVER/stm32f10x_rtc.o
 .text.RTC_GetCounter
                0x0000000000000000       0x14 obj/SKYROVER/stm32f10x_rtc.o
 .text.RTC_SetCounter
                0x0000000000000000       0x20 obj/SKYROVER/stm32f10x_rtc.o
 .text.RTC_SetPrescaler
                0x0000000000000000       0x20 obj/SKYROVER/stm32f10x_rtc.o
 .text.RTC_SetAlarm
                0x0000000000000000       0x20 obj/SKYROVER/stm32f10x_rtc.o
 .text.RTC_GetDivider
                0x0000000000000000       0x18 obj/SKYROVER/stm32f10x_rtc.o
 .text.RTC_WaitForLastTask
                0x0000000000000000       0x10 obj/SKYROVER/stm32f10x_rtc.o
 .text.RTC_WaitForSynchro
                0x0000000000000000       0x1c obj/SKYROVER/stm32f10x_rtc.o
 .text.RTC_GetFlagStatus
                0x0000000000000000       0x14 obj/SKYROVER/stm32f10x_rtc.o
 .text.RTC_ClearFlag
                0x0000000000000000       0x14 obj/SKYROVER/stm32f10x_rtc.o
 .text.RTC_GetITStatus
                0x0000000000000000       0x20 obj/SKYROVER/stm32f10x_rtc.o
 .text.RTC_ClearITPendingBit
                0x0000000000000000       0x14 obj/SKYROVER/stm32f10x_rtc.o
 .comment       0x0000000000000000       0x71 obj/SKYROVER/stm32f10x_rtc.o
 .ARM.attributes
                0x0000000000000000       0x33 obj/SKYROVER/stm32f10x_rtc.o
 .text          0x0000000000000000        0x0 obj/SKYROVER/stm32f10x_sdio.o
 .data          0x0000000000000000        0x0 obj/SKYROVER/stm32f10x_sdio.o
 .bss           0x0000000000000000        0x0 obj/SKYROVER/stm32f10x_sdio.o
 .text.SDIO_DeInit
                0x0000000000000000       0x24 obj/SKYROVER/stm32f10x_sdio.o
 .text.SDIO_Init
                0x0000000000000000       0x30 obj/SKYROVER/stm32f10x_sdio.o
 .text.SDIO_StructInit
                0x0000000000000000       0x10 obj/SKYROVER/stm32f10x_sdio.o
 .text.SDIO_ClockCmd
                0x0000000000000000        0xc obj/SKYROVER/stm32f10x_sdio.o
 .text.SDIO_SetPowerState
                0x0000000000000000       0x18 obj/SKYROVER/stm32f10x_sdio.o
 .text.SDIO_GetPowerState
                0x0000000000000000       0x10 obj/SKYROVER/stm32f10x_sdio.o
 .text.SDIO_ITConfig
                0x0000000000000000       0x18 obj/SKYROVER/stm32f10x_sdio.o
 .text.SDIO_DMACmd
                0x0000000000000000        0xc obj/SKYROVER/stm32f10x_sdio.o
 .text.SDIO_SendCommand
                0x0000000000000000       0x2c obj/SKYROVER/stm32f10x_sdio.o
 .text.SDIO_CmdStructInit
                0x0000000000000000        0xe obj/SKYROVER/stm32f10x_sdio.o
 .text.SDIO_GetCommandResponse
                0x0000000000000000        0xc obj/SKYROVER/stm32f10x_sdio.o
 .text.SDIO_GetResponse
                0x0000000000000000       0x18 obj/SKYROVER/stm32f10x_sdio.o
 .text.SDIO_DataConfig
                0x0000000000000000       0x2c obj/SKYROVER/stm32f10x_sdio.o
 .text.SDIO_DataStructInit
                0x0000000000000000       0x14 obj/SKYROVER/stm32f10x_sdio.o
 .text.SDIO_GetDataCounter
                0x0000000000000000        0xc obj/SKYROVER/stm32f10x_sdio.o
 .text.SDIO_ReadData
                0x0000000000000000        0xc obj/SKYROVER/stm32f10x_sdio.o
 .text.SDIO_WriteData
                0x0000000000000000        0xc obj/SKYROVER/stm32f10x_sdio.o
 .text.SDIO_GetFIFOCount
                0x0000000000000000        0xc obj/SKYROVER/stm32f10x_sdio.o
 .text.SDIO_StartSDIOReadWait
                0x0000000000000000        0xc obj/SKYROVER/stm32f10x_sdio.o
 .text.SDIO_StopSDIOReadWait
                0x0000000000000000        0xc obj/SKYROVER/stm32f10x_sdio.o
 .text.SDIO_SetSDIOReadWaitMode
                0x0000000000000000        0xc obj/SKYROVER/stm32f10x_sdio.o
 .text.SDIO_SetSDIOOperation
                0x0000000000000000        0xc obj/SKYROVER/stm32f10x_sdio.o
 .text.SDIO_SendSDIOSuspendCmd
                0x0000000000000000        0xc obj/SKYROVER/stm32f10x_sdio.o
 .text.SDIO_CommandCompletionCmd
                0x0000000000000000        0xc obj/SKYROVER/stm32f10x_sdio.o
 .text.SDIO_CEATAITCmd
                0x0000000000000000       0x14 obj/SKYROVER/stm32f10x_sdio.o
 .text.SDIO_SendCEATACmd
                0x0000000000000000        0xc obj/SKYROVER/stm32f10x_sdio.o
 .text.SDIO_GetFlagStatus
                0x0000000000000000       0x14 obj/SKYROVER/stm32f10x_sdio.o
 .text.SDIO_ClearFlag
                0x0000000000000000        0xc obj/SKYROVER/stm32f10x_sdio.o
 .text.SDIO_GetITStatus
                0x0000000000000000       0x14 obj/SKYROVER/stm32f10x_sdio.o
 .text.SDIO_ClearITPendingBit
                0x0000000000000000        0xc obj/SKYROVER/stm32f10x_sdio.o
 .comment       0x0000000000000000       0x71 obj/SKYROVER/stm32f10x_sdio.o
 .ARM.attributes
                0x0000000000000000       0x33 obj/SKYROVER/stm32f10x_sdio.o
 .text          0x0000000000000000        0x0 obj/SKYROVER/stm32f10x_spi.o
 .data          0x0000000000000000        0x0 obj/SKYROVER/stm32f10x_spi.o
 .bss           0x0000000000000000        0x0 obj/SKYROVER/stm32f10x_spi.o
 .text.I2S_Init
                0x0000000000000000       0xa4 obj/SKYROVER/stm32f10x_spi.o
 .text.SPI_StructInit
                0x0000000000000000       0x18 obj/SKYROVER/stm32f10x_spi.o
 .text.I2S_StructInit
                0x0000000000000000       0x12 obj/SKYROVER/stm32f10x_spi.o
 .text.I2S_Cmd  0x0000000000000000       0x18 obj/SKYROVER/stm32f10x_spi.o
 .text.SPI_I2S_ITConfig
                0x0000000000000000       0x1e obj/SKYROVER/stm32f10x_spi.o
 .text.SPI_I2S_DMACmd
                0x0000000000000000       0x12 obj/SKYROVER/stm32f10x_spi.o
 .text.SPI_NSSInternalSoftwareConfig
                0x0000000000000000       0x1e obj/SKYROVER/stm32f10x_spi.o
 .text.SPI_SSOutputCmd
                0x0000000000000000       0x18 obj/SKYROVER/stm32f10x_spi.o
 .text.SPI_DataSizeConfig
                0x0000000000000000       0x16 obj/SKYROVER/stm32f10x_spi.o
 .text.SPI_TransmitCRC
                0x0000000000000000        0xc obj/SKYROVER/stm32f10x_spi.o
 .text.SPI_CalculateCRC
                0x0000000000000000       0x18 obj/SKYROVER/stm32f10x_spi.o
 .text.SPI_GetCRC
                0x0000000000000000        0xc obj/SKYROVER/stm32f10x_spi.o
 .text.SPI_GetCRCPolynomial
                0x0000000000000000        0x6 obj/SKYROVER/stm32f10x_spi.o
 .text.SPI_BiDirectionalLineConfig
                0x0000000000000000       0x1c obj/SKYROVER/stm32f10x_spi.o
 .text.SPI_I2S_ClearFlag
                0x0000000000000000        0x8 obj/SKYROVER/stm32f10x_spi.o
 .text.SPI_I2S_GetITStatus
                0x0000000000000000       0x26 obj/SKYROVER/stm32f10x_spi.o
 .text.SPI_I2S_ClearITPendingBit
                0x0000000000000000       0x10 obj/SKYROVER/stm32f10x_spi.o
 .text          0x0000000000000000        0x0 obj/SKYROVER/stm32f10x_tim.o
 .data          0x0000000000000000        0x0 obj/SKYROVER/stm32f10x_tim.o
 .bss           0x0000000000000000        0x0 obj/SKYROVER/stm32f10x_tim.o
 .text.TIM_DeInit
                0x0000000000000000      0x1ac obj/SKYROVER/stm32f10x_tim.o
 .text.TIM_BDTRConfig
                0x0000000000000000       0x22 obj/SKYROVER/stm32f10x_tim.o
 .text.TIM_BDTRStructInit
                0x0000000000000000       0x12 obj/SKYROVER/stm32f10x_tim.o
 .text.TIM_GenerateEvent
                0x0000000000000000        0x4 obj/SKYROVER/stm32f10x_tim.o
 .text.TIM_DMAConfig
                0x0000000000000000        0x8 obj/SKYROVER/stm32f10x_tim.o
 .text.TIM_DMACmd
                0x0000000000000000       0x12 obj/SKYROVER/stm32f10x_tim.o
 .text.TIM_InternalClockConfig
                0x0000000000000000        0xe obj/SKYROVER/stm32f10x_tim.o
 .text.TIM_ITRxExternalClockConfig
                0x0000000000000000       0x1a obj/SKYROVER/stm32f10x_tim.o
 .text.TIM_TIxExternalClockConfig
                0x0000000000000000       0x34 obj/SKYROVER/stm32f10x_tim.o
 .text.TIM_ETRConfig
                0x0000000000000000       0x14 obj/SKYROVER/stm32f10x_tim.o
 .text.TIM_ETRClockMode1Config
                0x0000000000000000       0x1a obj/SKYROVER/stm32f10x_tim.o
 .text.TIM_ETRClockMode2Config
                0x0000000000000000       0x14 obj/SKYROVER/stm32f10x_tim.o
 .text.TIM_PrescalerConfig
                0x0000000000000000        0x6 obj/SKYROVER/stm32f10x_tim.o
 .text.TIM_CounterModeConfig
                0x0000000000000000       0x10 obj/SKYROVER/stm32f10x_tim.o
 .text.TIM_SelectInputTrigger
                0x0000000000000000       0x10 obj/SKYROVER/stm32f10x_tim.o
 .text.TIM_EncoderInterfaceConfig
                0x0000000000000000       0x3c obj/SKYROVER/stm32f10x_tim.o
 .text.TIM_ForcedOC1Config
                0x0000000000000000       0x10 obj/SKYROVER/stm32f10x_tim.o
 .text.TIM_ForcedOC2Config
                0x0000000000000000       0x14 obj/SKYROVER/stm32f10x_tim.o
 .text.TIM_ForcedOC3Config
                0x0000000000000000       0x10 obj/SKYROVER/stm32f10x_tim.o
 .text.TIM_ForcedOC4Config
                0x0000000000000000       0x14 obj/SKYROVER/stm32f10x_tim.o
 .text.TIM_ARRPreloadConfig
                0x0000000000000000       0x18 obj/SKYROVER/stm32f10x_tim.o
 .text.TIM_SelectCOM
                0x0000000000000000       0x18 obj/SKYROVER/stm32f10x_tim.o
 .text.TIM_SelectCCDMA
                0x0000000000000000       0x18 obj/SKYROVER/stm32f10x_tim.o
 .text.TIM_CCPreloadControl
                0x0000000000000000       0x18 obj/SKYROVER/stm32f10x_tim.o
 .text.TIM_OC1FastConfig
                0x0000000000000000       0x10 obj/SKYROVER/stm32f10x_tim.o
 .text.TIM_OC2FastConfig
                0x0000000000000000       0x14 obj/SKYROVER/stm32f10x_tim.o
 .text.TIM_OC3FastConfig
                0x0000000000000000       0x10 obj/SKYROVER/stm32f10x_tim.o
 .text.TIM_OC4FastConfig
                0x0000000000000000       0x14 obj/SKYROVER/stm32f10x_tim.o
 .text.TIM_ClearOC1Ref
                0x0000000000000000       0x10 obj/SKYROVER/stm32f10x_tim.o
 .text.TIM_ClearOC2Ref
                0x0000000000000000       0x10 obj/SKYROVER/stm32f10x_tim.o
 .text.TIM_ClearOC3Ref
                0x0000000000000000       0x10 obj/SKYROVER/stm32f10x_tim.o
 .text.TIM_ClearOC4Ref
                0x0000000000000000       0x10 obj/SKYROVER/stm32f10x_tim.o
 .text.TIM_OC1PolarityConfig
                0x0000000000000000       0x10 obj/SKYROVER/stm32f10x_tim.o
 .text.TIM_OC1NPolarityConfig
                0x0000000000000000       0x10 obj/SKYROVER/stm32f10x_tim.o
 .text.TIM_OC2PolarityConfig
                0x0000000000000000       0x14 obj/SKYROVER/stm32f10x_tim.o
 .text.TIM_OC2NPolarityConfig
                0x0000000000000000       0x14 obj/SKYROVER/stm32f10x_tim.o
 .text.TIM_OC3PolarityConfig
                0x0000000000000000       0x14 obj/SKYROVER/stm32f10x_tim.o
 .text.TIM_OC3NPolarityConfig
                0x0000000000000000       0x14 obj/SKYROVER/stm32f10x_tim.o
 .text.TIM_OC4PolarityConfig
                0x0000000000000000       0x14 obj/SKYROVER/stm32f10x_tim.o
 .text.TIM_CCxCmd
                0x0000000000000000       0x1c obj/SKYROVER/stm32f10x_tim.o
 .text.TIM_CCxNCmd
                0x0000000000000000       0x1c obj/SKYROVER/stm32f10x_tim.o
 .text.TIM_SelectOCxM
                0x0000000000000000       0x42 obj/SKYROVER/stm32f10x_tim.o
 .text.TIM_UpdateDisableConfig
                0x0000000000000000       0x18 obj/SKYROVER/stm32f10x_tim.o
 .text.TIM_UpdateRequestConfig
                0x0000000000000000       0x18 obj/SKYROVER/stm32f10x_tim.o
 .text.TIM_SelectHallSensor
                0x0000000000000000       0x18 obj/SKYROVER/stm32f10x_tim.o
 .text.TIM_SelectOnePulseMode
                0x0000000000000000       0x16 obj/SKYROVER/stm32f10x_tim.o
 .text.TIM_SelectOutputTrigger
                0x0000000000000000       0x16 obj/SKYROVER/stm32f10x_tim.o
 .text.TIM_SelectSlaveMode
                0x0000000000000000       0x16 obj/SKYROVER/stm32f10x_tim.o
 .text.TIM_SelectMasterSlaveMode
                0x0000000000000000       0x16 obj/SKYROVER/stm32f10x_tim.o
 .text.TIM_SetCounter
                0x0000000000000000        0x4 obj/SKYROVER/stm32f10x_tim.o
 .text.TIM_SetAutoreload
                0x0000000000000000        0x4 obj/SKYROVER/stm32f10x_tim.o
 .text.TIM_SetCompare1
                0x0000000000000000        0x4 obj/SKYROVER/stm32f10x_tim.o
 .text.TIM_SetCompare2
                0x0000000000000000        0x4 obj/SKYROVER/stm32f10x_tim.o
 .text.TIM_SetCompare3
                0x0000000000000000        0x4 obj/SKYROVER/stm32f10x_tim.o
 .text.TIM_SetCompare4
                0x0000000000000000        0x6 obj/SKYROVER/stm32f10x_tim.o
 .text.TIM_PWMIConfig
                0x0000000000000000       0x6e obj/SKYROVER/stm32f10x_tim.o
 .text.TIM_SetClockDivision
                0x0000000000000000       0x16 obj/SKYROVER/stm32f10x_tim.o
 .text.TIM_GetCounter
                0x0000000000000000        0x6 obj/SKYROVER/stm32f10x_tim.o
 .text.TIM_GetPrescaler
                0x0000000000000000        0x6 obj/SKYROVER/stm32f10x_tim.o
 .text.TIM_GetFlagStatus
                0x0000000000000000        0xc obj/SKYROVER/stm32f10x_tim.o
 .text.TIM_ClearFlag
                0x0000000000000000        0x8 obj/SKYROVER/stm32f10x_tim.o
 .text          0x0000000000000000        0x0 obj/SKYROVER/stm32f10x_usart.o
 .data          0x0000000000000000        0x0 obj/SKYROVER/stm32f10x_usart.o
 .bss           0x0000000000000000        0x0 obj/SKYROVER/stm32f10x_usart.o
 .text.USART_DeInit
                0x0000000000000000       0x98 obj/SKYROVER/stm32f10x_usart.o
 .text.USART_StructInit
                0x0000000000000000       0x16 obj/SKYROVER/stm32f10x_usart.o
 .text.USART_ClockInit
                0x0000000000000000       0x20 obj/SKYROVER/stm32f10x_usart.o
 .text.USART_ClockStructInit
                0x0000000000000000        0xc obj/SKYROVER/stm32f10x_usart.o
 .text.USART_SetAddress
                0x0000000000000000       0x16 obj/SKYROVER/stm32f10x_usart.o
 .text.USART_WakeUpConfig
                0x0000000000000000       0x16 obj/SKYROVER/stm32f10x_usart.o
 .text.USART_ReceiverWakeUpCmd
                0x0000000000000000       0x18 obj/SKYROVER/stm32f10x_usart.o
 .text.USART_LINBreakDetectLengthConfig
                0x0000000000000000       0x16 obj/SKYROVER/stm32f10x_usart.o
 .text.USART_LINCmd
                0x0000000000000000       0x18 obj/SKYROVER/stm32f10x_usart.o
 .text.USART_SendData
                0x0000000000000000        0x8 obj/SKYROVER/stm32f10x_usart.o
 .text.USART_ReceiveData
                0x0000000000000000        0x8 obj/SKYROVER/stm32f10x_usart.o
 .text.USART_SendBreak
                0x0000000000000000        0xc obj/SKYROVER/stm32f10x_usart.o
 .text.USART_SetGuardTime
                0x0000000000000000       0x12 obj/SKYROVER/stm32f10x_usart.o
 .text.USART_SetPrescaler
                0x0000000000000000       0x12 obj/SKYROVER/stm32f10x_usart.o
 .text.USART_SmartCardCmd
                0x0000000000000000       0x18 obj/SKYROVER/stm32f10x_usart.o
 .text.USART_SmartCardNACKCmd
                0x0000000000000000       0x18 obj/SKYROVER/stm32f10x_usart.o
 .text.USART_HalfDuplexCmd
                0x0000000000000000       0x18 obj/SKYROVER/stm32f10x_usart.o
 .text.USART_OverSampling8Cmd
                0x0000000000000000       0x18 obj/SKYROVER/stm32f10x_usart.o
 .text.USART_OneBitMethodCmd
                0x0000000000000000       0x18 obj/SKYROVER/stm32f10x_usart.o
 .text.USART_IrDAConfig
                0x0000000000000000       0x16 obj/SKYROVER/stm32f10x_usart.o
 .text.USART_IrDACmd
                0x0000000000000000       0x18 obj/SKYROVER/stm32f10x_usart.o
 .text.USART_GetFlagStatus
                0x0000000000000000        0xc obj/SKYROVER/stm32f10x_usart.o
 .text.USART_ClearFlag
                0x0000000000000000        0x8 obj/SKYROVER/stm32f10x_usart.o
 .text.USART_GetITStatus
                0x0000000000000000       0x40 obj/SKYROVER/stm32f10x_usart.o
 .text.USART_ClearITPendingBit
                0x0000000000000000        0xe obj/SKYROVER/stm32f10x_usart.o
 .text          0x0000000000000000        0x0 obj/SKYROVER/stm32f10x_wwdg.o
 .data          0x0000000000000000        0x0 obj/SKYROVER/stm32f10x_wwdg.o
 .bss           0x0000000000000000        0x0 obj/SKYROVER/stm32f10x_wwdg.o
 .text.WWDG_DeInit
                0x0000000000000000       0x1a obj/SKYROVER/stm32f10x_wwdg.o
 .text.WWDG_SetPrescaler
                0x0000000000000000       0x14 obj/SKYROVER/stm32f10x_wwdg.o
 .text.WWDG_SetWindowValue
                0x0000000000000000       0x28 obj/SKYROVER/stm32f10x_wwdg.o
 .text.WWDG_EnableIT
                0x0000000000000000        0xc obj/SKYROVER/stm32f10x_wwdg.o
 .text.WWDG_SetCounter
                0x0000000000000000       0x10 obj/SKYROVER/stm32f10x_wwdg.o
 .text.WWDG_Enable
                0x0000000000000000       0x10 obj/SKYROVER/stm32f10x_wwdg.o
 .text.WWDG_GetFlagStatus
                0x0000000000000000        0xc obj/SKYROVER/stm32f10x_wwdg.o
 .text.WWDG_ClearFlag
                0x0000000000000000        0xc obj/SKYROVER/stm32f10x_wwdg.o
 .comment       0x0000000000000000       0x71 obj/SKYROVER/stm32f10x_wwdg.o
 .ARM.attributes
                0x0000000000000000       0x33 obj/SKYROVER/stm32f10x_wwdg.o
 .text          0x0000000000000000        0x0 obj/SKYROVER/croutine.o
 .data          0x0000000000000000        0x0 obj/SKYROVER/croutine.o
 .bss           0x0000000000000000        0x0 obj/SKYROVER/croutine.o
 .text.xCoRoutineCreate
                0x0000000000000000       0xc4 obj/SKYROVER/croutine.o
 .text.vCoRoutineAddToDelayedList
                0x0000000000000000       0x4c obj/SKYROVER/croutine.o
 .text.vCoRoutineSchedule
                0x0000000000000000      0x140 obj/SKYROVER/croutine.o
 .text.xCoRoutineRemoveFromEventList
                0x0000000000000000       0x34 obj/SKYROVER/croutine.o
 .bss.xDelayedCoRoutineList1
                0x0000000000000000       0x14 obj/SKYROVER/croutine.o
 .bss.xPassedTicks
                0x0000000000000000        0x4 obj/SKYROVER/croutine.o
 .bss.xPendingReadyCoRoutineList
                0x0000000000000000       0x14 obj/SKYROVER/croutine.o
 .bss.pxCurrentCoRoutine
                0x0000000000000000        0x4 obj/SKYROVER/croutine.o
 .bss.xDelayedCoRoutineList2
                0x0000000000000000       0x14 obj/SKYROVER/croutine.o
 .bss.xCoRoutineTickCount
                0x0000000000000000        0x4 obj/SKYROVER/croutine.o
 .bss.xLastTickCount
                0x0000000000000000        0x4 obj/SKYROVER/croutine.o
 .bss.pxDelayedCoRoutineList
                0x0000000000000000        0x4 obj/SKYROVER/croutine.o
 .bss.pxReadyCoRoutineLists
                0x0000000000000000       0x28 obj/SKYROVER/croutine.o
 .bss.uxTopCoRoutineReadyPriority
                0x0000000000000000        0x4 obj/SKYROVER/croutine.o
 .bss.pxOverflowDelayedCoRoutineList
                0x0000000000000000        0x4 obj/SKYROVER/croutine.o
 .comment       0x0000000000000000       0x71 obj/SKYROVER/croutine.o
 .ARM.attributes
                0x0000000000000000       0x33 obj/SKYROVER/croutine.o
 .text          0x0000000000000000        0x0 obj/SKYROVER/list.o
 .data          0x0000000000000000        0x0 obj/SKYROVER/list.o
 .bss           0x0000000000000000        0x0 obj/SKYROVER/list.o
 .text          0x0000000000000000        0x0 obj/SKYROVER/queue.o
 .data          0x0000000000000000        0x0 obj/SKYROVER/queue.o
 .bss           0x0000000000000000        0x0 obj/SKYROVER/queue.o
 .text.xQueueCreateCountingSemaphore
                0x0000000000000000       0x2a obj/SKYROVER/queue.o
 .text.xQueueCreateMutex
                0x0000000000000000       0x50 obj/SKYROVER/queue.o
 .text.xQueueGiveMutexRecursive
                0x0000000000000000       0x32 obj/SKYROVER/queue.o
 .text.xQueueTakeMutexRecursive
                0x0000000000000000       0x3a obj/SKYROVER/queue.o
 .text.xQueueReceiveFromISR
                0x0000000000000000       0x6a obj/SKYROVER/queue.o
 .text.xQueuePeekFromISR
                0x0000000000000000       0x44 obj/SKYROVER/queue.o
 .text.uxQueueMessagesWaiting
                0x0000000000000000       0x1a obj/SKYROVER/queue.o
 .text.uxQueueSpacesAvailable
                0x0000000000000000       0x1e obj/SKYROVER/queue.o
 .text.uxQueueMessagesWaitingFromISR
                0x0000000000000000        0xe obj/SKYROVER/queue.o
 .text.ucQueueGetQueueNumber
                0x0000000000000000        0x6 obj/SKYROVER/queue.o
 .text.vQueueSetQueueNumber
                0x0000000000000000        0x6 obj/SKYROVER/queue.o
 .text.ucQueueGetQueueType
                0x0000000000000000        0x6 obj/SKYROVER/queue.o
 .text.xQueueIsQueueEmptyFromISR
                0x0000000000000000       0x16 obj/SKYROVER/queue.o
 .text.xQueueIsQueueFullFromISR
                0x0000000000000000       0x16 obj/SKYROVER/queue.o
 .text.vQueueAddToRegistry
                0x0000000000000000       0x24 obj/SKYROVER/queue.o
 .text.vQueueUnregisterQueue
                0x0000000000000000       0x24 obj/SKYROVER/queue.o
 .text.vQueueDelete
                0x0000000000000000       0x20 obj/SKYROVER/queue.o
 COMMON         0x0000000000000000       0x40 obj/SKYROVER/queue.o
 .text          0x0000000000000000        0x0 obj/SKYROVER/tasks.o
 .data          0x0000000000000000        0x0 obj/SKYROVER/tasks.o
 .bss           0x0000000000000000        0x0 obj/SKYROVER/tasks.o
 .text.prvListTaskWithinSingleList
                0x0000000000000000       0x88 obj/SKYROVER/tasks.o
 .text.vTaskDelete
                0x0000000000000000       0x6c obj/SKYROVER/tasks.o
 .text.uxTaskPriorityGet
                0x0000000000000000       0x1c obj/SKYROVER/tasks.o
 .text.vTaskPrioritySet
                0x0000000000000000       0xa4 obj/SKYROVER/tasks.o
 .text.xTaskIsTaskSuspended
                0x0000000000000000       0x30 obj/SKYROVER/tasks.o
 .text.vTaskResume
                0x0000000000000000       0x6c obj/SKYROVER/tasks.o
 .text.xTaskResumeFromISR
                0x0000000000000000       0x84 obj/SKYROVER/tasks.o
 .text.vTaskEndScheduler
                0x0000000000000000       0x18 obj/SKYROVER/tasks.o
 .text.xTaskGetTickCountFromISR
                0x0000000000000000       0x1c obj/SKYROVER/tasks.o
 .text.uxTaskGetNumberOfTasks
                0x0000000000000000        0xc obj/SKYROVER/tasks.o
 .text.vTaskDelayUntil
                0x0000000000000000       0x6c obj/SKYROVER/tasks.o
 .text.uxTaskGetSystemState
                0x0000000000000000       0x9c obj/SKYROVER/tasks.o
 .text.vTaskSuspend
                0x0000000000000000       0x70 obj/SKYROVER/tasks.o
 .text.uxTaskGetTaskNumber
                0x0000000000000000        0x6 obj/SKYROVER/tasks.o
 .text.vTaskSetTaskNumber
                0x0000000000000000        0x6 obj/SKYROVER/tasks.o
 .text          0x0000000000000000        0x0 obj/SKYROVER/timers.o
 .data          0x0000000000000000        0x0 obj/SKYROVER/timers.o
 .bss           0x0000000000000000        0x0 obj/SKYROVER/timers.o
 .text.xTimerCreate
                0x0000000000000000       0x3e obj/SKYROVER/timers.o
 .text.xTimerIsTimerActive
                0x0000000000000000       0x18 obj/SKYROVER/timers.o
 .text.pvTimerGetTimerID
                0x0000000000000000        0x4 obj/SKYROVER/timers.o
 .text          0x0000000000000000        0x0 obj/SKYROVER/cmsis_os.o
 .data          0x0000000000000000        0x0 obj/SKYROVER/cmsis_os.o
 .bss           0x0000000000000000        0x0 obj/SKYROVER/cmsis_os.o
 .text.osKernelSysTick
                0x0000000000000000        0xe obj/SKYROVER/cmsis_os.o
 .text.osKernelRunning
                0x0000000000000000        0xe obj/SKYROVER/cmsis_os.o
 .text.osThreadGetId
                0x0000000000000000        0x4 obj/SKYROVER/cmsis_os.o
 .text.osThreadTerminate
                0x0000000000000000        0xa obj/SKYROVER/cmsis_os.o
 .text.osThreadYield
                0x0000000000000000        0xa obj/SKYROVER/cmsis_os.o
 .text.osThreadSetPriority
                0x0000000000000000       0x12 obj/SKYROVER/cmsis_os.o
 .text.osThreadGetPriority
                0x0000000000000000        0x4 obj/SKYROVER/cmsis_os.o
 .text.osTimerCreate
                0x0000000000000000       0x20 obj/SKYROVER/cmsis_os.o
 .text.osTimerStart
                0x0000000000000000       0xb8 obj/SKYROVER/cmsis_os.o
 .text.osTimerStop
                0x0000000000000000       0x44 obj/SKYROVER/cmsis_os.o
 .text.osMutexCreate
                0x0000000000000000        0x6 obj/SKYROVER/cmsis_os.o
 .text.osMutexWait
                0x0000000000000000       0x24 obj/SKYROVER/cmsis_os.o
 .text.osMutexRelease
                0x0000000000000000       0x1e obj/SKYROVER/cmsis_os.o
 .text.osMutexDelete
                0x0000000000000000        0xa obj/SKYROVER/cmsis_os.o
 .text.osSemaphoreCreate
                0x0000000000000000       0x2c obj/SKYROVER/cmsis_os.o
 .text.osSemaphoreWait
                0x0000000000000000       0x24 obj/SKYROVER/cmsis_os.o
 .text.osSemaphoreRelease
                0x0000000000000000       0x44 obj/SKYROVER/cmsis_os.o
 .text.osSemaphoreDelete
                0x0000000000000000        0xa obj/SKYROVER/cmsis_os.o
 .text.osPoolCreate
                0x0000000000000000       0x64 obj/SKYROVER/cmsis_os.o
 .text.osPoolAlloc
                0x0000000000000000       0x5a obj/SKYROVER/cmsis_os.o
 .text.osPoolCAlloc
                0x0000000000000000       0x16 obj/SKYROVER/cmsis_os.o
 .text.osPoolFree
                0x0000000000000000       0x2a obj/SKYROVER/cmsis_os.o
 .text.osMessageCreate
                0x0000000000000000        0xa obj/SKYROVER/cmsis_os.o
 .text.osMessagePut
                0x0000000000000000       0x4c obj/SKYROVER/cmsis_os.o
 .text.osMessageGet
                0x0000000000000000       0x68 obj/SKYROVER/cmsis_os.o
 .text.osMailCreate
                0x0000000000000000       0x62 obj/SKYROVER/cmsis_os.o
 .text.osMailAlloc
                0x0000000000000000        0xa obj/SKYROVER/cmsis_os.o
 .text.osMailCAlloc
                0x0000000000000000       0x14 obj/SKYROVER/cmsis_os.o
 .text.osMailPut
                0x0000000000000000       0x50 obj/SKYROVER/cmsis_os.o
 .text.osMailGet
                0x0000000000000000       0x68 obj/SKYROVER/cmsis_os.o
 .text.osMailFree
                0x0000000000000000       0x12 obj/SKYROVER/cmsis_os.o
 .text.osThreadSuspend
                0x0000000000000000        0xa obj/SKYROVER/cmsis_os.o
 .text.osThreadResume
                0x0000000000000000       0x16 obj/SKYROVER/cmsis_os.o
 .text.osThreadSuspendAll
                0x0000000000000000        0xa obj/SKYROVER/cmsis_os.o
 .text.osThreadResumeAll
                0x0000000000000000        0xa obj/SKYROVER/cmsis_os.o
 .text.osThreadIsSuspended
                0x0000000000000000       0x10 obj/SKYROVER/cmsis_os.o
 .text.osDelayUntil
                0x0000000000000000       0x1c obj/SKYROVER/cmsis_os.o
 .text.osThreadList
                0x0000000000000000        0x4 obj/SKYROVER/cmsis_os.o
 .text.osMessagePeek
                0x0000000000000000       0x38 obj/SKYROVER/cmsis_os.o
 .text.osRecursiveMutexCreate
                0x0000000000000000        0x6 obj/SKYROVER/cmsis_os.o
 .text.osRecursiveMutexRelease
                0x0000000000000000       0x10 obj/SKYROVER/cmsis_os.o
 .text.osRecursiveMutexWait
                0x0000000000000000       0x16 obj/SKYROVER/cmsis_os.o
 .rodata.str1.1
                0x0000000000000000        0x1 obj/SKYROVER/cmsis_os.o
 .text          0x0000000000000000        0x0 obj/SKYROVER/heap_2.o
 .data          0x0000000000000000        0x0 obj/SKYROVER/heap_2.o
 .bss           0x0000000000000000        0x0 obj/SKYROVER/heap_2.o
 .text.xPortGetFreeHeapSize
                0x0000000000000000        0xc obj/SKYROVER/heap_2.o
 .text.vPortInitialiseBlocks
                0x0000000000000000        0x2 obj/SKYROVER/heap_2.o
 .text          0x0000000000000000        0x0 obj/SKYROVER/port.o
 .data          0x0000000000000000        0x0 obj/SKYROVER/port.o
 .bss           0x0000000000000000        0x0 obj/SKYROVER/port.o
 .text.vPortEndScheduler
                0x0000000000000000        0x2 obj/SKYROVER/port.o
 .text          0x0000000000000000        0x0 obj/SKYROVER/usb_core.o
 .data          0x0000000000000000        0x0 obj/SKYROVER/usb_core.o
 .bss           0x0000000000000000        0x0 obj/SKYROVER/usb_core.o
 .text          0x0000000000000000        0x0 obj/SKYROVER/usb_init.o
 .data          0x0000000000000000        0x0 obj/SKYROVER/usb_init.o
 .bss           0x0000000000000000        0x0 obj/SKYROVER/usb_init.o
 .text          0x0000000000000000        0x0 obj/SKYROVER/usb_int.o
 .data          0x0000000000000000        0x0 obj/SKYROVER/usb_int.o
 .bss           0x0000000000000000        0x0 obj/SKYROVER/usb_int.o
 .text.CTR_HP   0x0000000000000000       0x70 obj/SKYROVER/usb_int.o
 .text          0x0000000000000000        0x0 obj/SKYROVER/usb_mem.o
 .data          0x0000000000000000        0x0 obj/SKYROVER/usb_mem.o
 .bss           0x0000000000000000        0x0 obj/SKYROVER/usb_mem.o
 .text          0x0000000000000000        0x0 obj/SKYROVER/usb_regs.o
 .data          0x0000000000000000        0x0 obj/SKYROVER/usb_regs.o
 .bss           0x0000000000000000        0x0 obj/SKYROVER/usb_regs.o
 .text.SetCNTR  0x0000000000000000        0xc obj/SKYROVER/usb_regs.o
 .text.GetCNTR  0x0000000000000000        0xc obj/SKYROVER/usb_regs.o
 .text.SetISTR  0x0000000000000000        0xc obj/SKYROVER/usb_regs.o
 .text.GetISTR  0x0000000000000000        0xc obj/SKYROVER/usb_regs.o
 .text.GetFNR   0x0000000000000000        0xc obj/SKYROVER/usb_regs.o
 .text.SetDADDR
                0x0000000000000000        0xc obj/SKYROVER/usb_regs.o
 .text.GetDADDR
                0x0000000000000000        0xc obj/SKYROVER/usb_regs.o
 .text.GetBTABLE
                0x0000000000000000        0xc obj/SKYROVER/usb_regs.o
 .text.SetENDPOINT
                0x0000000000000000        0xe obj/SKYROVER/usb_regs.o
 .text.GetENDPOINT
                0x0000000000000000       0x10 obj/SKYROVER/usb_regs.o
 .text.GetEPType
                0x0000000000000000       0x12 obj/SKYROVER/usb_regs.o
 .text.SetDouBleBuffEPStall
                0x0000000000000000       0x24 obj/SKYROVER/usb_regs.o
 .text.GetEPTxStatus
                0x0000000000000000       0x12 obj/SKYROVER/usb_regs.o
 .text.GetEPRxStatus
                0x0000000000000000       0x12 obj/SKYROVER/usb_regs.o
 .text.SetEP_KIND
                0x0000000000000000       0x20 obj/SKYROVER/usb_regs.o
 .text.ClearEP_KIND
                0x0000000000000000       0x20 obj/SKYROVER/usb_regs.o
 .text.Set_Status_Out
                0x0000000000000000       0x20 obj/SKYROVER/usb_regs.o
 .text.SetEPDoubleBuff
                0x0000000000000000       0x20 obj/SKYROVER/usb_regs.o
 .text.ClearEPDoubleBuff
                0x0000000000000000       0x20 obj/SKYROVER/usb_regs.o
 .text.GetTxStallStatus
                0x0000000000000000       0x1a obj/SKYROVER/usb_regs.o
 .text.GetRxStallStatus
                0x0000000000000000       0x1a obj/SKYROVER/usb_regs.o
 .text.ClearEP_CTR_RX
                0x0000000000000000       0x18 obj/SKYROVER/usb_regs.o
 .text.ClearEP_CTR_TX
                0x0000000000000000       0x1c obj/SKYROVER/usb_regs.o
 .text.ToggleDTOG_RX
                0x0000000000000000       0x20 obj/SKYROVER/usb_regs.o
 .text.ToggleDTOG_TX
                0x0000000000000000       0x20 obj/SKYROVER/usb_regs.o
 .text.SetEPAddress
                0x0000000000000000       0x22 obj/SKYROVER/usb_regs.o
 .text.GetEPAddress
                0x0000000000000000       0x12 obj/SKYROVER/usb_regs.o
 .text.SetEPCountRxReg
                0x0000000000000000       0x26 obj/SKYROVER/usb_regs.o
 .text.GetEPTxCount
                0x0000000000000000       0x20 obj/SKYROVER/usb_regs.o
 .text.SetEPDblBuffAddr
                0x0000000000000000       0x38 obj/SKYROVER/usb_regs.o
 .text.SetEPDblBuf0Addr
                0x0000000000000000       0x20 obj/SKYROVER/usb_regs.o
 .text.SetEPDblBuf1Addr
                0x0000000000000000       0x20 obj/SKYROVER/usb_regs.o
 .text.GetEPDblBuf0Addr
                0x0000000000000000       0x1c obj/SKYROVER/usb_regs.o
 .text.GetEPDblBuf1Addr
                0x0000000000000000       0x1c obj/SKYROVER/usb_regs.o
 .text.SetEPDblBuffCount
                0x0000000000000000       0xa8 obj/SKYROVER/usb_regs.o
 .text.SetEPDblBuf0Count
                0x0000000000000000       0x5c obj/SKYROVER/usb_regs.o
 .text.SetEPDblBuf1Count
                0x0000000000000000       0x5c obj/SKYROVER/usb_regs.o
 .text.GetEPDblBuf0Count
                0x0000000000000000       0x20 obj/SKYROVER/usb_regs.o
 .text.GetEPDblBuf1Count
                0x0000000000000000       0x20 obj/SKYROVER/usb_regs.o
 .text.GetEPDblBufDir
                0x0000000000000000       0x44 obj/SKYROVER/usb_regs.o
 .text.FreeUserBuffer
                0x0000000000000000       0x42 obj/SKYROVER/usb_regs.o
 .text.ToWord   0x0000000000000000        0x6 obj/SKYROVER/usb_regs.o
 .text          0x0000000000000000        0x0 obj/SKYROVER/usb_sil.o
 .data          0x0000000000000000        0x0 obj/SKYROVER/usb_sil.o
 .bss           0x0000000000000000        0x0 obj/SKYROVER/usb_sil.o
 .text.USB_SIL_Write
                0x0000000000000000       0x28 obj/SKYROVER/usb_sil.o
 .text          0x0000000000000000        0x0 obj/SKYROVER/hw_config.o
 .data          0x0000000000000000        0x0 obj/SKYROVER/hw_config.o
 .bss           0x0000000000000000        0x0 obj/SKYROVER/hw_config.o
 .text.Enter_LowPowerMode
                0x0000000000000000        0xc obj/SKYROVER/hw_config.o
 .text.Leave_LowPowerMode
                0x0000000000000000       0x1c obj/SKYROVER/hw_config.o
 .text.USART_Config_Default
                0x0000000000000000        0x2 obj/SKYROVER/hw_config.o
 .text.USART_Config
                0x0000000000000000        0x4 obj/SKYROVER/hw_config.o
 .text.USART_To_USB_Send_Data
                0x0000000000000000        0x2 obj/SKYROVER/hw_config.o
 .text          0x0000000000000000        0x0 obj/SKYROVER/usb_desc.o
 .data          0x0000000000000000        0x0 obj/SKYROVER/usb_desc.o
 .bss           0x0000000000000000        0x0 obj/SKYROVER/usb_desc.o
 .text          0x0000000000000000        0x0 obj/SKYROVER/usb_endp.o
 .data          0x0000000000000000        0x0 obj/SKYROVER/usb_endp.o
 .bss           0x0000000000000000        0x0 obj/SKYROVER/usb_endp.o
 .text          0x0000000000000000        0x0 obj/SKYROVER/usb_istr.o
 .data          0x0000000000000000        0x0 obj/SKYROVER/usb_istr.o
 .bss           0x0000000000000000        0x0 obj/SKYROVER/usb_istr.o
 .bss.wCNTR     0x0000000000000000        0x4 obj/SKYROVER/usb_istr.o
 .bss.esof_counter
                0x0000000000000000        0x4 obj/SKYROVER/usb_istr.o
 .text          0x0000000000000000        0x0 obj/SKYROVER/usb_prop.o
 .data          0x0000000000000000        0x0 obj/SKYROVER/usb_prop.o
 .bss           0x0000000000000000        0x0 obj/SKYROVER/usb_prop.o
 .text          0x0000000000000000        0x0 obj/SKYROVER/usb_pwr.o
 .data          0x0000000000000000        0x0 obj/SKYROVER/usb_pwr.o
 .bss           0x0000000000000000        0x0 obj/SKYROVER/usb_pwr.o
 .text.PowerOff
                0x0000000000000000       0x24 obj/SKYROVER/usb_pwr.o
 .text.Suspend  0x0000000000000000       0xd8 obj/SKYROVER/usb_pwr.o
 .text.Resume_Init
                0x0000000000000000       0x20 obj/SKYROVER/usb_pwr.o
 .text.Resume   0x0000000000000000       0xa8 obj/SKYROVER/usb_pwr.o
 .bss.fSuspendEnabled
                0x0000000000000000        0x1 obj/SKYROVER/usb_pwr.o
 .bss.remotewakeupon
                0x0000000000000000        0x4 obj/SKYROVER/usb_pwr.o
 COMMON         0x0000000000000000       0x24 obj/SKYROVER/usb_pwr.o
 .text          0x0000000000000000        0x0 /Users/imac/Develop/stm32f4/arm_gcc/gcc-arm-none-eabi-4_8-2014q2/bin/../lib/gcc/arm-none-eabi/4.8.4/../../../../arm-none-eabi/lib/armv7-m/libm.a(lib_a-sf_cos.o)
 .data          0x0000000000000000        0x0 /Users/imac/Develop/stm32f4/arm_gcc/gcc-arm-none-eabi-4_8-2014q2/bin/../lib/gcc/arm-none-eabi/4.8.4/../../../../arm-none-eabi/lib/armv7-m/libm.a(lib_a-sf_cos.o)
 .bss           0x0000000000000000        0x0 /Users/imac/Develop/stm32f4/arm_gcc/gcc-arm-none-eabi-4_8-2014q2/bin/../lib/gcc/arm-none-eabi/4.8.4/../../../../arm-none-eabi/lib/armv7-m/libm.a(lib_a-sf_cos.o)
 .text          0x0000000000000000        0x0 /Users/imac/Develop/stm32f4/arm_gcc/gcc-arm-none-eabi-4_8-2014q2/bin/../lib/gcc/arm-none-eabi/4.8.4/../../../../arm-none-eabi/lib/armv7-m/libm.a(lib_a-sf_lrint.o)
 .data          0x0000000000000000        0x0 /Users/imac/Develop/stm32f4/arm_gcc/gcc-arm-none-eabi-4_8-2014q2/bin/../lib/gcc/arm-none-eabi/4.8.4/../../../../arm-none-eabi/lib/armv7-m/libm.a(lib_a-sf_lrint.o)
 .bss           0x0000000000000000        0x0 /Users/imac/Develop/stm32f4/arm_gcc/gcc-arm-none-eabi-4_8-2014q2/bin/../lib/gcc/arm-none-eabi/4.8.4/../../../../arm-none-eabi/lib/armv7-m/libm.a(lib_a-sf_lrint.o)
 .text          0x0000000000000000        0x0 /Users/imac/Develop/stm32f4/arm_gcc/gcc-arm-none-eabi-4_8-2014q2/bin/../lib/gcc/arm-none-eabi/4.8.4/../../../../arm-none-eabi/lib/armv7-m/libm.a(lib_a-sf_sin.o)
 .data          0x0000000000000000        0x0 /Users/imac/Develop/stm32f4/arm_gcc/gcc-arm-none-eabi-4_8-2014q2/bin/../lib/gcc/arm-none-eabi/4.8.4/../../../../arm-none-eabi/lib/armv7-m/libm.a(lib_a-sf_sin.o)
 .bss           0x0000000000000000        0x0 /Users/imac/Develop/stm32f4/arm_gcc/gcc-arm-none-eabi-4_8-2014q2/bin/../lib/gcc/arm-none-eabi/4.8.4/../../../../arm-none-eabi/lib/armv7-m/libm.a(lib_a-sf_sin.o)
 .text          0x0000000000000000        0x0 /Users/imac/Develop/stm32f4/arm_gcc/gcc-arm-none-eabi-4_8-2014q2/bin/../lib/gcc/arm-none-eabi/4.8.4/../../../../arm-none-eabi/lib/armv7-m/libm.a(lib_a-wf_atan2.o)
 .data          0x0000000000000000        0x0 /Users/imac/Develop/stm32f4/arm_gcc/gcc-arm-none-eabi-4_8-2014q2/bin/../lib/gcc/arm-none-eabi/4.8.4/../../../../arm-none-eabi/lib/armv7-m/libm.a(lib_a-wf_atan2.o)
 .bss           0x0000000000000000        0x0 /Users/imac/Develop/stm32f4/arm_gcc/gcc-arm-none-eabi-4_8-2014q2/bin/../lib/gcc/arm-none-eabi/4.8.4/../../../../arm-none-eabi/lib/armv7-m/libm.a(lib_a-wf_atan2.o)
 .text          0x0000000000000000        0x0 /Users/imac/Develop/stm32f4/arm_gcc/gcc-arm-none-eabi-4_8-2014q2/bin/../lib/gcc/arm-none-eabi/4.8.4/../../../../arm-none-eabi/lib/armv7-m/libm.a(lib_a-wf_pow.o)
 .data          0x0000000000000000        0x0 /Users/imac/Develop/stm32f4/arm_gcc/gcc-arm-none-eabi-4_8-2014q2/bin/../lib/gcc/arm-none-eabi/4.8.4/../../../../arm-none-eabi/lib/armv7-m/libm.a(lib_a-wf_pow.o)
 .bss           0x0000000000000000        0x0 /Users/imac/Develop/stm32f4/arm_gcc/gcc-arm-none-eabi-4_8-2014q2/bin/../lib/gcc/arm-none-eabi/4.8.4/../../../../arm-none-eabi/lib/armv7-m/libm.a(lib_a-wf_pow.o)
 .text          0x0000000000000000        0x0 /Users/imac/Develop/stm32f4/arm_gcc/gcc-arm-none-eabi-4_8-2014q2/bin/../lib/gcc/arm-none-eabi/4.8.4/../../../../arm-none-eabi/lib/armv7-m/libm.a(lib_a-wf_sqrt.o)
 .data          0x0000000000000000        0x0 /Users/imac/Develop/stm32f4/arm_gcc/gcc-arm-none-eabi-4_8-2014q2/bin/../lib/gcc/arm-none-eabi/4.8.4/../../../../arm-none-eabi/lib/armv7-m/libm.a(lib_a-wf_sqrt.o)
 .bss           0x0000000000000000        0x0 /Users/imac/Develop/stm32f4/arm_gcc/gcc-arm-none-eabi-4_8-2014q2/bin/../lib/gcc/arm-none-eabi/4.8.4/../../../../arm-none-eabi/lib/armv7-m/libm.a(lib_a-wf_sqrt.o)
 .text          0x0000000000000000        0x0 /Users/imac/Develop/stm32f4/arm_gcc/gcc-arm-none-eabi-4_8-2014q2/bin/../lib/gcc/arm-none-eabi/4.8.4/../../../../arm-none-eabi/lib/armv7-m/libm.a(lib_a-ef_atan2.o)
 .data          0x0000000000000000        0x0 /Users/imac/Develop/stm32f4/arm_gcc/gcc-arm-none-eabi-4_8-2014q2/bin/../lib/gcc/arm-none-eabi/4.8.4/../../../../arm-none-eabi/lib/armv7-m/libm.a(lib_a-ef_atan2.o)
 .bss           0x0000000000000000        0x0 /Users/imac/Develop/stm32f4/arm_gcc/gcc-arm-none-eabi-4_8-2014q2/bin/../lib/gcc/arm-none-eabi/4.8.4/../../../../arm-none-eabi/lib/armv7-m/libm.a(lib_a-ef_atan2.o)
 .text          0x0000000000000000        0x0 /Users/imac/Develop/stm32f4/arm_gcc/gcc-arm-none-eabi-4_8-2014q2/bin/../lib/gcc/arm-none-eabi/4.8.4/../../../../arm-none-eabi/lib/armv7-m/libm.a(lib_a-ef_pow.o)
 .data          0x0000000000000000        0x0 /Users/imac/Develop/stm32f4/arm_gcc/gcc-arm-none-eabi-4_8-2014q2/bin/../lib/gcc/arm-none-eabi/4.8.4/../../../../arm-none-eabi/lib/armv7-m/libm.a(lib_a-ef_pow.o)
 .bss           0x0000000000000000        0x0 /Users/imac/Develop/stm32f4/arm_gcc/gcc-arm-none-eabi-4_8-2014q2/bin/../lib/gcc/arm-none-eabi/4.8.4/../../../../arm-none-eabi/lib/armv7-m/libm.a(lib_a-ef_pow.o)
 .text          0x0000000000000000        0x0 /Users/imac/Develop/stm32f4/arm_gcc/gcc-arm-none-eabi-4_8-2014q2/bin/../lib/gcc/arm-none-eabi/4.8.4/../../../../arm-none-eabi/lib/armv7-m/libm.a(lib_a-ef_rem_pio2.o)
 .data          0x0000000000000000        0x0 /Users/imac/Develop/stm32f4/arm_gcc/gcc-arm-none-eabi-4_8-2014q2/bin/../lib/gcc/arm-none-eabi/4.8.4/../../../../arm-none-eabi/lib/armv7-m/libm.a(lib_a-ef_rem_pio2.o)
 .bss           0x0000000000000000        0x0 /Users/imac/Develop/stm32f4/arm_gcc/gcc-arm-none-eabi-4_8-2014q2/bin/../lib/gcc/arm-none-eabi/4.8.4/../../../../arm-none-eabi/lib/armv7-m/libm.a(lib_a-ef_rem_pio2.o)
 .text          0x0000000000000000        0x0 /Users/imac/Develop/stm32f4/arm_gcc/gcc-arm-none-eabi-4_8-2014q2/bin/../lib/gcc/arm-none-eabi/4.8.4/../../../../arm-none-eabi/lib/armv7-m/libm.a(lib_a-ef_sqrt.o)
 .data          0x0000000000000000        0x0 /Users/imac/Develop/stm32f4/arm_gcc/gcc-arm-none-eabi-4_8-2014q2/bin/../lib/gcc/arm-none-eabi/4.8.4/../../../../arm-none-eabi/lib/armv7-m/libm.a(lib_a-ef_sqrt.o)
 .bss           0x0000000000000000        0x0 /Users/imac/Develop/stm32f4/arm_gcc/gcc-arm-none-eabi-4_8-2014q2/bin/../lib/gcc/arm-none-eabi/4.8.4/../../../../arm-none-eabi/lib/armv7-m/libm.a(lib_a-ef_sqrt.o)
 .text          0x0000000000000000        0x0 /Users/imac/Develop/stm32f4/arm_gcc/gcc-arm-none-eabi-4_8-2014q2/bin/../lib/gcc/arm-none-eabi/4.8.4/../../../../arm-none-eabi/lib/armv7-m/libm.a(lib_a-kf_cos.o)
 .data          0x0000000000000000        0x0 /Users/imac/Develop/stm32f4/arm_gcc/gcc-arm-none-eabi-4_8-2014q2/bin/../lib/gcc/arm-none-eabi/4.8.4/../../../../arm-none-eabi/lib/armv7-m/libm.a(lib_a-kf_cos.o)
 .bss           0x0000000000000000        0x0 /Users/imac/Develop/stm32f4/arm_gcc/gcc-arm-none-eabi-4_8-2014q2/bin/../lib/gcc/arm-none-eabi/4.8.4/../../../../arm-none-eabi/lib/armv7-m/libm.a(lib_a-kf_cos.o)
 .text          0x0000000000000000        0x0 /Users/imac/Develop/stm32f4/arm_gcc/gcc-arm-none-eabi-4_8-2014q2/bin/../lib/gcc/arm-none-eabi/4.8.4/../../../../arm-none-eabi/lib/armv7-m/libm.a(lib_a-kf_rem_pio2.o)
 .data          0x0000000000000000        0x0 /Users/imac/Develop/stm32f4/arm_gcc/gcc-arm-none-eabi-4_8-2014q2/bin/../lib/gcc/arm-none-eabi/4.8.4/../../../../arm-none-eabi/lib/armv7-m/libm.a(lib_a-kf_rem_pio2.o)
 .bss           0x0000000000000000        0x0 /Users/imac/Develop/stm32f4/arm_gcc/gcc-arm-none-eabi-4_8-2014q2/bin/../lib/gcc/arm-none-eabi/4.8.4/../../../../arm-none-eabi/lib/armv7-m/libm.a(lib_a-kf_rem_pio2.o)
 .text          0x0000000000000000        0x0 /Users/imac/Develop/stm32f4/arm_gcc/gcc-arm-none-eabi-4_8-2014q2/bin/../lib/gcc/arm-none-eabi/4.8.4/../../../../arm-none-eabi/lib/armv7-m/libm.a(lib_a-kf_sin.o)
 .data          0x0000000000000000        0x0 /Users/imac/Develop/stm32f4/arm_gcc/gcc-arm-none-eabi-4_8-2014q2/bin/../lib/gcc/arm-none-eabi/4.8.4/../../../../arm-none-eabi/lib/armv7-m/libm.a(lib_a-kf_sin.o)
 .bss           0x0000000000000000        0x0 /Users/imac/Develop/stm32f4/arm_gcc/gcc-arm-none-eabi-4_8-2014q2/bin/../lib/gcc/arm-none-eabi/4.8.4/../../../../arm-none-eabi/lib/armv7-m/libm.a(lib_a-kf_sin.o)
 .text          0x0000000000000000        0x0 /Users/imac/Develop/stm32f4/arm_gcc/gcc-arm-none-eabi-4_8-2014q2/bin/../lib/gcc/arm-none-eabi/4.8.4/../../../../arm-none-eabi/lib/armv7-m/libm.a(lib_a-s_lib_ver.o)
 .data          0x0000000000000000        0x0 /Users/imac/Develop/stm32f4/arm_gcc/gcc-arm-none-eabi-4_8-2014q2/bin/../lib/gcc/arm-none-eabi/4.8.4/../../../../arm-none-eabi/lib/armv7-m/libm.a(lib_a-s_lib_ver.o)
 .bss           0x0000000000000000        0x0 /Users/imac/Develop/stm32f4/arm_gcc/gcc-arm-none-eabi-4_8-2014q2/bin/../lib/gcc/arm-none-eabi/4.8.4/../../../../arm-none-eabi/lib/armv7-m/libm.a(lib_a-s_lib_ver.o)
 .text          0x0000000000000000        0x0 /Users/imac/Develop/stm32f4/arm_gcc/gcc-arm-none-eabi-4_8-2014q2/bin/../lib/gcc/arm-none-eabi/4.8.4/../../../../arm-none-eabi/lib/armv7-m/libm.a(lib_a-s_matherr.o)
 .data          0x0000000000000000        0x0 /Users/imac/Develop/stm32f4/arm_gcc/gcc-arm-none-eabi-4_8-2014q2/bin/../lib/gcc/arm-none-eabi/4.8.4/../../../../arm-none-eabi/lib/armv7-m/libm.a(lib_a-s_matherr.o)
 .bss           0x0000000000000000        0x0 /Users/imac/Develop/stm32f4/arm_gcc/gcc-arm-none-eabi-4_8-2014q2/bin/../lib/gcc/arm-none-eabi/4.8.4/../../../../arm-none-eabi/lib/armv7-m/libm.a(lib_a-s_matherr.o)
 .text          0x0000000000000000        0x0 /Users/imac/Develop/stm32f4/arm_gcc/gcc-arm-none-eabi-4_8-2014q2/bin/../lib/gcc/arm-none-eabi/4.8.4/../../../../arm-none-eabi/lib/armv7-m/libm.a(lib_a-s_rint.o)
 .data          0x0000000000000000        0x0 /Users/imac/Develop/stm32f4/arm_gcc/gcc-arm-none-eabi-4_8-2014q2/bin/../lib/gcc/arm-none-eabi/4.8.4/../../../../arm-none-eabi/lib/armv7-m/libm.a(lib_a-s_rint.o)
 .bss           0x0000000000000000        0x0 /Users/imac/Develop/stm32f4/arm_gcc/gcc-arm-none-eabi-4_8-2014q2/bin/../lib/gcc/arm-none-eabi/4.8.4/../../../../arm-none-eabi/lib/armv7-m/libm.a(lib_a-s_rint.o)
 .text          0x0000000000000000        0x0 /Users/imac/Develop/stm32f4/arm_gcc/gcc-arm-none-eabi-4_8-2014q2/bin/../lib/gcc/arm-none-eabi/4.8.4/../../../../arm-none-eabi/lib/armv7-m/libm.a(lib_a-sf_atan.o)
 .data          0x0000000000000000        0x0 /Users/imac/Develop/stm32f4/arm_gcc/gcc-arm-none-eabi-4_8-2014q2/bin/../lib/gcc/arm-none-eabi/4.8.4/../../../../arm-none-eabi/lib/armv7-m/libm.a(lib_a-sf_atan.o)
 .bss           0x0000000000000000        0x0 /Users/imac/Develop/stm32f4/arm_gcc/gcc-arm-none-eabi-4_8-2014q2/bin/../lib/gcc/arm-none-eabi/4.8.4/../../../../arm-none-eabi/lib/armv7-m/libm.a(lib_a-sf_atan.o)
 .text          0x0000000000000000        0x0 /Users/imac/Develop/stm32f4/arm_gcc/gcc-arm-none-eabi-4_8-2014q2/bin/../lib/gcc/arm-none-eabi/4.8.4/../../../../arm-none-eabi/lib/armv7-m/libm.a(lib_a-sf_fabs.o)
 .data          0x0000000000000000        0x0 /Users/imac/Develop/stm32f4/arm_gcc/gcc-arm-none-eabi-4_8-2014q2/bin/../lib/gcc/arm-none-eabi/4.8.4/../../../../arm-none-eabi/lib/armv7-m/libm.a(lib_a-sf_fabs.o)
 .bss           0x0000000000000000        0x0 /Users/imac/Develop/stm32f4/arm_gcc/gcc-arm-none-eabi-4_8-2014q2/bin/../lib/gcc/arm-none-eabi/4.8.4/../../../../arm-none-eabi/lib/armv7-m/libm.a(lib_a-sf_fabs.o)
 .text          0x0000000000000000        0x0 /Users/imac/Develop/stm32f4/arm_gcc/gcc-arm-none-eabi-4_8-2014q2/bin/../lib/gcc/arm-none-eabi/4.8.4/../../../../arm-none-eabi/lib/armv7-m/libm.a(lib_a-sf_finite.o)
 .data          0x0000000000000000        0x0 /Users/imac/Develop/stm32f4/arm_gcc/gcc-arm-none-eabi-4_8-2014q2/bin/../lib/gcc/arm-none-eabi/4.8.4/../../../../arm-none-eabi/lib/armv7-m/libm.a(lib_a-sf_finite.o)
 .bss           0x0000000000000000        0x0 /Users/imac/Develop/stm32f4/arm_gcc/gcc-arm-none-eabi-4_8-2014q2/bin/../lib/gcc/arm-none-eabi/4.8.4/../../../../arm-none-eabi/lib/armv7-m/libm.a(lib_a-sf_finite.o)
 .text          0x0000000000000000        0x0 /Users/imac/Develop/stm32f4/arm_gcc/gcc-arm-none-eabi-4_8-2014q2/bin/../lib/gcc/arm-none-eabi/4.8.4/../../../../arm-none-eabi/lib/armv7-m/libm.a(lib_a-sf_floor.o)
 .data          0x0000000000000000        0x0 /Users/imac/Develop/stm32f4/arm_gcc/gcc-arm-none-eabi-4_8-2014q2/bin/../lib/gcc/arm-none-eabi/4.8.4/../../../../arm-none-eabi/lib/armv7-m/libm.a(lib_a-sf_floor.o)
 .bss           0x0000000000000000        0x0 /Users/imac/Develop/stm32f4/arm_gcc/gcc-arm-none-eabi-4_8-2014q2/bin/../lib/gcc/arm-none-eabi/4.8.4/../../../../arm-none-eabi/lib/armv7-m/libm.a(lib_a-sf_floor.o)
 .text          0x0000000000000000        0x0 /Users/imac/Develop/stm32f4/arm_gcc/gcc-arm-none-eabi-4_8-2014q2/bin/../lib/gcc/arm-none-eabi/4.8.4/../../../../arm-none-eabi/lib/armv7-m/libm.a(lib_a-sf_fpclassify.o)
 .data          0x0000000000000000        0x0 /Users/imac/Develop/stm32f4/arm_gcc/gcc-arm-none-eabi-4_8-2014q2/bin/../lib/gcc/arm-none-eabi/4.8.4/../../../../arm-none-eabi/lib/armv7-m/libm.a(lib_a-sf_fpclassify.o)
 .bss           0x0000000000000000        0x0 /Users/imac/Develop/stm32f4/arm_gcc/gcc-arm-none-eabi-4_8-2014q2/bin/../lib/gcc/arm-none-eabi/4.8.4/../../../../arm-none-eabi/lib/armv7-m/libm.a(lib_a-sf_fpclassify.o)
 .text          0x0000000000000000        0x0 /Users/imac/Develop/stm32f4/arm_gcc/gcc-arm-none-eabi-4_8-2014q2/bin/../lib/gcc/arm-none-eabi/4.8.4/../../../../arm-none-eabi/lib/armv7-m/libm.a(lib_a-sf_nan.o)
 .data          0x0000000000000000        0x0 /Users/imac/Develop/stm32f4/arm_gcc/gcc-arm-none-eabi-4_8-2014q2/bin/../lib/gcc/arm-none-eabi/4.8.4/../../../../arm-none-eabi/lib/armv7-m/libm.a(lib_a-sf_nan.o)
 .bss           0x0000000000000000        0x0 /Users/imac/Develop/stm32f4/arm_gcc/gcc-arm-none-eabi-4_8-2014q2/bin/../lib/gcc/arm-none-eabi/4.8.4/../../../../arm-none-eabi/lib/armv7-m/libm.a(lib_a-sf_nan.o)
 .text          0x0000000000000000        0x0 /Users/imac/Develop/stm32f4/arm_gcc/gcc-arm-none-eabi-4_8-2014q2/bin/../lib/gcc/arm-none-eabi/4.8.4/../../../../arm-none-eabi/lib/armv7-m/libm.a(lib_a-sf_scalbn.o)
 .data          0x0000000000000000        0x0 /Users/imac/Develop/stm32f4/arm_gcc/gcc-arm-none-eabi-4_8-2014q2/bin/../lib/gcc/arm-none-eabi/4.8.4/../../../../arm-none-eabi/lib/armv7-m/libm.a(lib_a-sf_scalbn.o)
 .bss           0x0000000000000000        0x0 /Users/imac/Develop/stm32f4/arm_gcc/gcc-arm-none-eabi-4_8-2014q2/bin/../lib/gcc/arm-none-eabi/4.8.4/../../../../arm-none-eabi/lib/armv7-m/libm.a(lib_a-sf_scalbn.o)
 .text          0x0000000000000000        0x0 /Users/imac/Develop/stm32f4/arm_gcc/gcc-arm-none-eabi-4_8-2014q2/bin/../lib/gcc/arm-none-eabi/4.8.4/../../../../arm-none-eabi/lib/armv7-m/libm.a(lib_a-sf_copysign.o)
 .data          0x0000000000000000        0x0 /Users/imac/Develop/stm32f4/arm_gcc/gcc-arm-none-eabi-4_8-2014q2/bin/../lib/gcc/arm-none-eabi/4.8.4/../../../../arm-none-eabi/lib/armv7-m/libm.a(lib_a-sf_copysign.o)
 .bss           0x0000000000000000        0x0 /Users/imac/Develop/stm32f4/arm_gcc/gcc-arm-none-eabi-4_8-2014q2/bin/../lib/gcc/arm-none-eabi/4.8.4/../../../../arm-none-eabi/lib/armv7-m/libm.a(lib_a-sf_copysign.o)
 .data          0x0000000000000000        0x0 /Users/imac/Develop/stm32f4/arm_gcc/gcc-arm-none-eabi-4_8-2014q2/bin/../lib/gcc/arm-none-eabi/4.8.4/armv7-m/libgcc.a(_arm_addsubdf3.o)
 .bss           0x0000000000000000        0x0 /Users/imac/Develop/stm32f4/arm_gcc/gcc-arm-none-eabi-4_8-2014q2/bin/../lib/gcc/arm-none-eabi/4.8.4/armv7-m/libgcc.a(_arm_addsubdf3.o)
 .data          0x0000000000000000        0x0 /Users/imac/Develop/stm32f4/arm_gcc/gcc-arm-none-eabi-4_8-2014q2/bin/../lib/gcc/arm-none-eabi/4.8.4/armv7-m/libgcc.a(_arm_muldivdf3.o)
 .bss           0x0000000000000000        0x0 /Users/imac/Develop/stm32f4/arm_gcc/gcc-arm-none-eabi-4_8-2014q2/bin/../lib/gcc/arm-none-eabi/4.8.4/armv7-m/libgcc.a(_arm_muldivdf3.o)
 .data          0x0000000000000000        0x0 /Users/imac/Develop/stm32f4/arm_gcc/gcc-arm-none-eabi-4_8-2014q2/bin/../lib/gcc/arm-none-eabi/4.8.4/armv7-m/libgcc.a(_arm_cmpdf2.o)
 .bss           0x0000000000000000        0x0 /Users/imac/Develop/stm32f4/arm_gcc/gcc-arm-none-eabi-4_8-2014q2/bin/../lib/gcc/arm-none-eabi/4.8.4/armv7-m/libgcc.a(_arm_cmpdf2.o)
 .data          0x0000000000000000        0x0 /Users/imac/Develop/stm32f4/arm_gcc/gcc-arm-none-eabi-4_8-2014q2/bin/../lib/gcc/arm-none-eabi/4.8.4/armv7-m/libgcc.a(_arm_truncdfsf2.o)
 .bss           0x0000000000000000        0x0 /Users/imac/Develop/stm32f4/arm_gcc/gcc-arm-none-eabi-4_8-2014q2/bin/../lib/gcc/arm-none-eabi/4.8.4/armv7-m/libgcc.a(_arm_truncdfsf2.o)
 .data          0x0000000000000000        0x0 /Users/imac/Develop/stm32f4/arm_gcc/gcc-arm-none-eabi-4_8-2014q2/bin/../lib/gcc/arm-none-eabi/4.8.4/armv7-m/libgcc.a(_arm_addsubsf3.o)
 .bss           0x0000000000000000        0x0 /Users/imac/Develop/stm32f4/arm_gcc/gcc-arm-none-eabi-4_8-2014q2/bin/../lib/gcc/arm-none-eabi/4.8.4/armv7-m/libgcc.a(_arm_addsubsf3.o)
 .data          0x0000000000000000        0x0 /Users/imac/Develop/stm32f4/arm_gcc/gcc-arm-none-eabi-4_8-2014q2/bin/../lib/gcc/arm-none-eabi/4.8.4/armv7-m/libgcc.a(_arm_muldivsf3.o)
 .bss           0x0000000000000000        0x0 /Users/imac/Develop/stm32f4/arm_gcc/gcc-arm-none-eabi-4_8-2014q2/bin/../lib/gcc/arm-none-eabi/4.8.4/armv7-m/libgcc.a(_arm_muldivsf3.o)
 .data          0x0000000000000000        0x0 /Users/imac/Develop/stm32f4/arm_gcc/gcc-arm-none-eabi-4_8-2014q2/bin/../lib/gcc/arm-none-eabi/4.8.4/armv7-m/libgcc.a(_arm_cmpsf2.o)
 .bss           0x0000000000000000        0x0 /Users/imac/Develop/stm32f4/arm_gcc/gcc-arm-none-eabi-4_8-2014q2/bin/../lib/gcc/arm-none-eabi/4.8.4/armv7-m/libgcc.a(_arm_cmpsf2.o)
 .data          0x0000000000000000        0x0 /Users/imac/Develop/stm32f4/arm_gcc/gcc-arm-none-eabi-4_8-2014q2/bin/../lib/gcc/arm-none-eabi/4.8.4/armv7-m/libgcc.a(_arm_fixsfsi.o)
 .bss           0x0000000000000000        0x0 /Users/imac/Develop/stm32f4/arm_gcc/gcc-arm-none-eabi-4_8-2014q2/bin/../lib/gcc/arm-none-eabi/4.8.4/armv7-m/libgcc.a(_arm_fixsfsi.o)
 .data          0x0000000000000000        0x0 /Users/imac/Develop/stm32f4/arm_gcc/gcc-arm-none-eabi-4_8-2014q2/bin/../lib/gcc/arm-none-eabi/4.8.4/armv7-m/libgcc.a(_arm_fixunssfsi.o)
 .bss           0x0000000000000000        0x0 /Users/imac/Develop/stm32f4/arm_gcc/gcc-arm-none-eabi-4_8-2014q2/bin/../lib/gcc/arm-none-eabi/4.8.4/armv7-m/libgcc.a(_arm_fixunssfsi.o)
 .text          0x0000000000000000        0x0 /Users/imac/Develop/stm32f4/arm_gcc/gcc-arm-none-eabi-4_8-2014q2/bin/../lib/gcc/arm-none-eabi/4.8.4/../../../../arm-none-eabi/lib/armv7-m/libc.a(lib_a-atoi.o)
 .data          0x0000000000000000        0x0 /Users/imac/Develop/stm32f4/arm_gcc/gcc-arm-none-eabi-4_8-2014q2/bin/../lib/gcc/arm-none-eabi/4.8.4/../../../../arm-none-eabi/lib/armv7-m/libc.a(lib_a-atoi.o)
 .bss           0x0000000000000000        0x0 /Users/imac/Develop/stm32f4/arm_gcc/gcc-arm-none-eabi-4_8-2014q2/bin/../lib/gcc/arm-none-eabi/4.8.4/../../../../arm-none-eabi/lib/armv7-m/libc.a(lib_a-atoi.o)
 .text._atoi_r  0x0000000000000000        0x8 /Users/imac/Develop/stm32f4/arm_gcc/gcc-arm-none-eabi-4_8-2014q2/bin/../lib/gcc/arm-none-eabi/4.8.4/../../../../arm-none-eabi/lib/armv7-m/libc.a(lib_a-atoi.o)
 .text          0x0000000000000000        0x0 /Users/imac/Develop/stm32f4/arm_gcc/gcc-arm-none-eabi-4_8-2014q2/bin/../lib/gcc/arm-none-eabi/4.8.4/../../../../arm-none-eabi/lib/armv7-m/libc.a(lib_a-bsearch.o)
 .data          0x0000000000000000        0x0 /Users/imac/Develop/stm32f4/arm_gcc/gcc-arm-none-eabi-4_8-2014q2/bin/../lib/gcc/arm-none-eabi/4.8.4/../../../../arm-none-eabi/lib/armv7-m/libc.a(lib_a-bsearch.o)
 .bss           0x0000000000000000        0x0 /Users/imac/Develop/stm32f4/arm_gcc/gcc-arm-none-eabi-4_8-2014q2/bin/../lib/gcc/arm-none-eabi/4.8.4/../../../../arm-none-eabi/lib/armv7-m/libc.a(lib_a-bsearch.o)
 .text          0x0000000000000000        0x0 /Users/imac/Develop/stm32f4/arm_gcc/gcc-arm-none-eabi-4_8-2014q2/bin/../lib/gcc/arm-none-eabi/4.8.4/../../../../arm-none-eabi/lib/armv7-m/libc.a(lib_a-ctype_.o)
 .data          0x0000000000000000        0x0 /Users/imac/Develop/stm32f4/arm_gcc/gcc-arm-none-eabi-4_8-2014q2/bin/../lib/gcc/arm-none-eabi/4.8.4/../../../../arm-none-eabi/lib/armv7-m/libc.a(lib_a-ctype_.o)
 .bss           0x0000000000000000        0x0 /Users/imac/Develop/stm32f4/arm_gcc/gcc-arm-none-eabi-4_8-2014q2/bin/../lib/gcc/arm-none-eabi/4.8.4/../../../../arm-none-eabi/lib/armv7-m/libc.a(lib_a-ctype_.o)
 .text          0x0000000000000000        0x0 /Users/imac/Develop/stm32f4/arm_gcc/gcc-arm-none-eabi-4_8-2014q2/bin/../lib/gcc/arm-none-eabi/4.8.4/../../../../arm-none-eabi/lib/armv7-m/libc.a(lib_a-errno.o)
 .data          0x0000000000000000        0x0 /Users/imac/Develop/stm32f4/arm_gcc/gcc-arm-none-eabi-4_8-2014q2/bin/../lib/gcc/arm-none-eabi/4.8.4/../../../../arm-none-eabi/lib/armv7-m/libc.a(lib_a-errno.o)
 .bss           0x0000000000000000        0x0 /Users/imac/Develop/stm32f4/arm_gcc/gcc-arm-none-eabi-4_8-2014q2/bin/../lib/gcc/arm-none-eabi/4.8.4/../../../../arm-none-eabi/lib/armv7-m/libc.a(lib_a-errno.o)
 .text          0x0000000000000000        0x0 /Users/imac/Develop/stm32f4/arm_gcc/gcc-arm-none-eabi-4_8-2014q2/bin/../lib/gcc/arm-none-eabi/4.8.4/../../../../arm-none-eabi/lib/armv7-m/libc.a(lib_a-exit.o)
 .data          0x0000000000000000        0x0 /Users/imac/Develop/stm32f4/arm_gcc/gcc-arm-none-eabi-4_8-2014q2/bin/../lib/gcc/arm-none-eabi/4.8.4/../../../../arm-none-eabi/lib/armv7-m/libc.a(lib_a-exit.o)
 .bss           0x0000000000000000        0x0 /Users/imac/Develop/stm32f4/arm_gcc/gcc-arm-none-eabi-4_8-2014q2/bin/../lib/gcc/arm-none-eabi/4.8.4/../../../../arm-none-eabi/lib/armv7-m/libc.a(lib_a-exit.o)
 .text.exit     0x0000000000000000       0x20 /Users/imac/Develop/stm32f4/arm_gcc/gcc-arm-none-eabi-4_8-2014q2/bin/../lib/gcc/arm-none-eabi/4.8.4/../../../../arm-none-eabi/lib/armv7-m/libc.a(lib_a-exit.o)
 .ARM.attributes
                0x0000000000000000       0x2d /Users/imac/Develop/stm32f4/arm_gcc/gcc-arm-none-eabi-4_8-2014q2/bin/../lib/gcc/arm-none-eabi/4.8.4/../../../../arm-none-eabi/lib/armv7-m/libc.a(lib_a-exit.o)
 .debug_frame   0x0000000000000000       0x28 /Users/imac/Develop/stm32f4/arm_gcc/gcc-arm-none-eabi-4_8-2014q2/bin/../lib/gcc/arm-none-eabi/4.8.4/../../../../arm-none-eabi/lib/armv7-m/libc.a(lib_a-exit.o)
 .text          0x0000000000000000        0x0 /Users/imac/Develop/stm32f4/arm_gcc/gcc-arm-none-eabi-4_8-2014q2/bin/../lib/gcc/arm-none-eabi/4.8.4/../../../../arm-none-eabi/lib/armv7-m/libc.a(lib_a-impure.o)
 .data          0x0000000000000000        0x0 /Users/imac/Develop/stm32f4/arm_gcc/gcc-arm-none-eabi-4_8-2014q2/bin/../lib/gcc/arm-none-eabi/4.8.4/../../../../arm-none-eabi/lib/armv7-m/libc.a(lib_a-impure.o)
 .bss           0x0000000000000000        0x0 /Users/imac/Develop/stm32f4/arm_gcc/gcc-arm-none-eabi-4_8-2014q2/bin/../lib/gcc/arm-none-eabi/4.8.4/../../../../arm-none-eabi/lib/armv7-m/libc.a(lib_a-impure.o)
 .text          0x0000000000000000        0x0 /Users/imac/Develop/stm32f4/arm_gcc/gcc-arm-none-eabi-4_8-2014q2/bin/../lib/gcc/arm-none-eabi/4.8.4/../../../../arm-none-eabi/lib/armv7-m/libc.a(lib_a-init.o)
 .data          0x0000000000000000        0x0 /Users/imac/Develop/stm32f4/arm_gcc/gcc-arm-none-eabi-4_8-2014q2/bin/../lib/gcc/arm-none-eabi/4.8.4/../../../../arm-none-eabi/lib/armv7-m/libc.a(lib_a-init.o)
 .bss           0x0000000000000000        0x0 /Users/imac/Develop/stm32f4/arm_gcc/gcc-arm-none-eabi-4_8-2014q2/bin/../lib/gcc/arm-none-eabi/4.8.4/../../../../arm-none-eabi/lib/armv7-m/libc.a(lib_a-init.o)
 .data          0x0000000000000000        0x0 /Users/imac/Develop/stm32f4/arm_gcc/gcc-arm-none-eabi-4_8-2014q2/bin/../lib/gcc/arm-none-eabi/4.8.4/../../../../arm-none-eabi/lib/armv7-m/libc.a(lib_a-memcpy.o)
 .bss           0x0000000000000000        0x0 /Users/imac/Develop/stm32f4/arm_gcc/gcc-arm-none-eabi-4_8-2014q2/bin/../lib/gcc/arm-none-eabi/4.8.4/../../../../arm-none-eabi/lib/armv7-m/libc.a(lib_a-memcpy.o)
 .text          0x0000000000000000        0x0 /Users/imac/Develop/stm32f4/arm_gcc/gcc-arm-none-eabi-4_8-2014q2/bin/../lib/gcc/arm-none-eabi/4.8.4/../../../../arm-none-eabi/lib/armv7-m/libc.a(lib_a-memset.o)
 .data          0x0000000000000000        0x0 /Users/imac/Develop/stm32f4/arm_gcc/gcc-arm-none-eabi-4_8-2014q2/bin/../lib/gcc/arm-none-eabi/4.8.4/../../../../arm-none-eabi/lib/armv7-m/libc.a(lib_a-memset.o)
 .bss           0x0000000000000000        0x0 /Users/imac/Develop/stm32f4/arm_gcc/gcc-arm-none-eabi-4_8-2014q2/bin/../lib/gcc/arm-none-eabi/4.8.4/../../../../arm-none-eabi/lib/armv7-m/libc.a(lib_a-memset.o)
 .text          0x0000000000000000        0x0 /Users/imac/Develop/stm32f4/arm_gcc/gcc-arm-none-eabi-4_8-2014q2/bin/../lib/gcc/arm-none-eabi/4.8.4/../../../../arm-none-eabi/lib/armv7-m/libc.a(lib_a-strcat.o)
 .data          0x0000000000000000        0x0 /Users/imac/Develop/stm32f4/arm_gcc/gcc-arm-none-eabi-4_8-2014q2/bin/../lib/gcc/arm-none-eabi/4.8.4/../../../../arm-none-eabi/lib/armv7-m/libc.a(lib_a-strcat.o)
 .bss           0x0000000000000000        0x0 /Users/imac/Develop/stm32f4/arm_gcc/gcc-arm-none-eabi-4_8-2014q2/bin/../lib/gcc/arm-none-eabi/4.8.4/../../../../arm-none-eabi/lib/armv7-m/libc.a(lib_a-strcat.o)
 .text          0x0000000000000000        0x0 /Users/imac/Develop/stm32f4/arm_gcc/gcc-arm-none-eabi-4_8-2014q2/bin/../lib/gcc/arm-none-eabi/4.8.4/../../../../arm-none-eabi/lib/armv7-m/libc.a(lib_a-strchr.o)
 .data          0x0000000000000000        0x0 /Users/imac/Develop/stm32f4/arm_gcc/gcc-arm-none-eabi-4_8-2014q2/bin/../lib/gcc/arm-none-eabi/4.8.4/../../../../arm-none-eabi/lib/armv7-m/libc.a(lib_a-strchr.o)
 .bss           0x0000000000000000        0x0 /Users/imac/Develop/stm32f4/arm_gcc/gcc-arm-none-eabi-4_8-2014q2/bin/../lib/gcc/arm-none-eabi/4.8.4/../../../../arm-none-eabi/lib/armv7-m/libc.a(lib_a-strchr.o)
 .text          0x0000000000000000        0x0 /Users/imac/Develop/stm32f4/arm_gcc/gcc-arm-none-eabi-4_8-2014q2/bin/../lib/gcc/arm-none-eabi/4.8.4/../../../../arm-none-eabi/lib/armv7-m/libc.a(lib_a-strcpy.o)
 .data          0x0000000000000000        0x0 /Users/imac/Develop/stm32f4/arm_gcc/gcc-arm-none-eabi-4_8-2014q2/bin/../lib/gcc/arm-none-eabi/4.8.4/../../../../arm-none-eabi/lib/armv7-m/libc.a(lib_a-strcpy.o)
 .bss           0x0000000000000000        0x0 /Users/imac/Develop/stm32f4/arm_gcc/gcc-arm-none-eabi-4_8-2014q2/bin/../lib/gcc/arm-none-eabi/4.8.4/../../../../arm-none-eabi/lib/armv7-m/libc.a(lib_a-strcpy.o)
 .text          0x0000000000000000        0x0 /Users/imac/Develop/stm32f4/arm_gcc/gcc-arm-none-eabi-4_8-2014q2/bin/../lib/gcc/arm-none-eabi/4.8.4/../../../../arm-none-eabi/lib/armv7-m/libc.a(lib_a-strlen.o)
 .data          0x0000000000000000        0x0 /Users/imac/Develop/stm32f4/arm_gcc/gcc-arm-none-eabi-4_8-2014q2/bin/../lib/gcc/arm-none-eabi/4.8.4/../../../../arm-none-eabi/lib/armv7-m/libc.a(lib_a-strlen.o)
 .bss           0x0000000000000000        0x0 /Users/imac/Develop/stm32f4/arm_gcc/gcc-arm-none-eabi-4_8-2014q2/bin/../lib/gcc/arm-none-eabi/4.8.4/../../../../arm-none-eabi/lib/armv7-m/libc.a(lib_a-strlen.o)
 .text          0x0000000000000000        0x0 /Users/imac/Develop/stm32f4/arm_gcc/gcc-arm-none-eabi-4_8-2014q2/bin/../lib/gcc/arm-none-eabi/4.8.4/../../../../arm-none-eabi/lib/armv7-m/libc.a(lib_a-strncasecmp.o)
 .data          0x0000000000000000        0x0 /Users/imac/Develop/stm32f4/arm_gcc/gcc-arm-none-eabi-4_8-2014q2/bin/../lib/gcc/arm-none-eabi/4.8.4/../../../../arm-none-eabi/lib/armv7-m/libc.a(lib_a-strncasecmp.o)
 .bss           0x0000000000000000        0x0 /Users/imac/Develop/stm32f4/arm_gcc/gcc-arm-none-eabi-4_8-2014q2/bin/../lib/gcc/arm-none-eabi/4.8.4/../../../../arm-none-eabi/lib/armv7-m/libc.a(lib_a-strncasecmp.o)
 .text          0x0000000000000000        0x0 /Users/imac/Develop/stm32f4/arm_gcc/gcc-arm-none-eabi-4_8-2014q2/bin/../lib/gcc/arm-none-eabi/4.8.4/../../../../arm-none-eabi/lib/armv7-m/libc.a(lib_a-strncpy.o)
 .data          0x0000000000000000        0x0 /Users/imac/Develop/stm32f4/arm_gcc/gcc-arm-none-eabi-4_8-2014q2/bin/../lib/gcc/arm-none-eabi/4.8.4/../../../../arm-none-eabi/lib/armv7-m/libc.a(lib_a-strncpy.o)
 .bss           0x0000000000000000        0x0 /Users/imac/Develop/stm32f4/arm_gcc/gcc-arm-none-eabi-4_8-2014q2/bin/../lib/gcc/arm-none-eabi/4.8.4/../../../../arm-none-eabi/lib/armv7-m/libc.a(lib_a-strncpy.o)
 .text          0x0000000000000000        0x0 /Users/imac/Develop/stm32f4/arm_gcc/gcc-arm-none-eabi-4_8-2014q2/bin/../lib/gcc/arm-none-eabi/4.8.4/../../../../arm-none-eabi/lib/armv7-m/libc.a(lib_a-strstr.o)
 .data          0x0000000000000000        0x0 /Users/imac/Develop/stm32f4/arm_gcc/gcc-arm-none-eabi-4_8-2014q2/bin/../lib/gcc/arm-none-eabi/4.8.4/../../../../arm-none-eabi/lib/armv7-m/libc.a(lib_a-strstr.o)
 .bss           0x0000000000000000        0x0 /Users/imac/Develop/stm32f4/arm_gcc/gcc-arm-none-eabi-4_8-2014q2/bin/../lib/gcc/arm-none-eabi/4.8.4/../../../../arm-none-eabi/lib/armv7-m/libc.a(lib_a-strstr.o)
 .text          0x0000000000000000        0x0 /Users/imac/Develop/stm32f4/arm_gcc/gcc-arm-none-eabi-4_8-2014q2/bin/../lib/gcc/arm-none-eabi/4.8.4/../../../../arm-none-eabi/lib/armv7-m/libc.a(lib_a-strtok.o)
 .data          0x0000000000000000        0x0 /Users/imac/Develop/stm32f4/arm_gcc/gcc-arm-none-eabi-4_8-2014q2/bin/../lib/gcc/arm-none-eabi/4.8.4/../../../../arm-none-eabi/lib/armv7-m/libc.a(lib_a-strtok.o)
 .bss           0x0000000000000000        0x0 /Users/imac/Develop/stm32f4/arm_gcc/gcc-arm-none-eabi-4_8-2014q2/bin/../lib/gcc/arm-none-eabi/4.8.4/../../../../arm-none-eabi/lib/armv7-m/libc.a(lib_a-strtok.o)
 .text          0x0000000000000000        0x0 /Users/imac/Develop/stm32f4/arm_gcc/gcc-arm-none-eabi-4_8-2014q2/bin/../lib/gcc/arm-none-eabi/4.8.4/../../../../arm-none-eabi/lib/armv7-m/libc.a(lib_a-strtok_r.o)
 .data          0x0000000000000000        0x0 /Users/imac/Develop/stm32f4/arm_gcc/gcc-arm-none-eabi-4_8-2014q2/bin/../lib/gcc/arm-none-eabi/4.8.4/../../../../arm-none-eabi/lib/armv7-m/libc.a(lib_a-strtok_r.o)
 .bss           0x0000000000000000        0x0 /Users/imac/Develop/stm32f4/arm_gcc/gcc-arm-none-eabi-4_8-2014q2/bin/../lib/gcc/arm-none-eabi/4.8.4/../../../../arm-none-eabi/lib/armv7-m/libc.a(lib_a-strtok_r.o)
 .text.strtok_r
                0x0000000000000000        0x8 /Users/imac/Develop/stm32f4/arm_gcc/gcc-arm-none-eabi-4_8-2014q2/bin/../lib/gcc/arm-none-eabi/4.8.4/../../../../arm-none-eabi/lib/armv7-m/libc.a(lib_a-strtok_r.o)
 .text          0x0000000000000000        0x0 /Users/imac/Develop/stm32f4/arm_gcc/gcc-arm-none-eabi-4_8-2014q2/bin/../lib/gcc/arm-none-eabi/4.8.4/../../../../arm-none-eabi/lib/armv7-m/libc.a(lib_a-strtol.o)
 .data          0x0000000000000000        0x0 /Users/imac/Develop/stm32f4/arm_gcc/gcc-arm-none-eabi-4_8-2014q2/bin/../lib/gcc/arm-none-eabi/4.8.4/../../../../arm-none-eabi/lib/armv7-m/libc.a(lib_a-strtol.o)
 .bss           0x0000000000000000        0x0 /Users/imac/Develop/stm32f4/arm_gcc/gcc-arm-none-eabi-4_8-2014q2/bin/../lib/gcc/arm-none-eabi/4.8.4/../../../../arm-none-eabi/lib/armv7-m/libc.a(lib_a-strtol.o)
 .text          0x0000000000000000        0x0 /Users/imac/Develop/stm32f4/arm_gcc/gcc-arm-none-eabi-4_8-2014q2/bin/../lib/gcc/arm-none-eabi/4.8.4/../../../../arm-none-eabi/lib/armv7-m/libc.a(lib_a-__call_atexit.o)
 .data          0x0000000000000000        0x0 /Users/imac/Develop/stm32f4/arm_gcc/gcc-arm-none-eabi-4_8-2014q2/bin/../lib/gcc/arm-none-eabi/4.8.4/../../../../arm-none-eabi/lib/armv7-m/libc.a(lib_a-__call_atexit.o)
 .bss           0x0000000000000000        0x0 /Users/imac/Develop/stm32f4/arm_gcc/gcc-arm-none-eabi-4_8-2014q2/bin/../lib/gcc/arm-none-eabi/4.8.4/../../../../arm-none-eabi/lib/armv7-m/libc.a(lib_a-__call_atexit.o)
 .text.__call_exitprocs
                0x0000000000000000       0xf0 /Users/imac/Develop/stm32f4/arm_gcc/gcc-arm-none-eabi-4_8-2014q2/bin/../lib/gcc/arm-none-eabi/4.8.4/../../../../arm-none-eabi/lib/armv7-m/libc.a(lib_a-__call_atexit.o)
 .text          0x0000000000000000        0x0 /Users/imac/Develop/stm32f4/arm_gcc/gcc-arm-none-eabi-4_8-2014q2/bin/../lib/gcc/arm-none-eabi/4.8.4/../../../../arm-none-eabi/lib/armv7-m/libc.a(lib_a-atexit.o)
 .data          0x0000000000000000        0x0 /Users/imac/Develop/stm32f4/arm_gcc/gcc-arm-none-eabi-4_8-2014q2/bin/../lib/gcc/arm-none-eabi/4.8.4/../../../../arm-none-eabi/lib/armv7-m/libc.a(lib_a-atexit.o)
 .bss           0x0000000000000000        0x0 /Users/imac/Develop/stm32f4/arm_gcc/gcc-arm-none-eabi-4_8-2014q2/bin/../lib/gcc/arm-none-eabi/4.8.4/../../../../arm-none-eabi/lib/armv7-m/libc.a(lib_a-atexit.o)
 .text          0x0000000000000000        0x0 /Users/imac/Develop/stm32f4/arm_gcc/gcc-arm-none-eabi-4_8-2014q2/bin/../lib/gcc/arm-none-eabi/4.8.4/../../../../arm-none-eabi/lib/armv7-m/libc.a(lib_a-fini.o)
 .data          0x0000000000000000        0x0 /Users/imac/Develop/stm32f4/arm_gcc/gcc-arm-none-eabi-4_8-2014q2/bin/../lib/gcc/arm-none-eabi/4.8.4/../../../../arm-none-eabi/lib/armv7-m/libc.a(lib_a-fini.o)
 .bss           0x0000000000000000        0x0 /Users/imac/Develop/stm32f4/arm_gcc/gcc-arm-none-eabi-4_8-2014q2/bin/../lib/gcc/arm-none-eabi/4.8.4/../../../../arm-none-eabi/lib/armv7-m/libc.a(lib_a-fini.o)
 .text          0x0000000000000000        0x0 /Users/imac/Develop/stm32f4/arm_gcc/gcc-arm-none-eabi-4_8-2014q2/bin/../lib/gcc/arm-none-eabi/4.8.4/../../../../arm-none-eabi/lib/armv7-m/libc.a(lib_a-memchr-stub.o)
 .data          0x0000000000000000        0x0 /Users/imac/Develop/stm32f4/arm_gcc/gcc-arm-none-eabi-4_8-2014q2/bin/../lib/gcc/arm-none-eabi/4.8.4/../../../../arm-none-eabi/lib/armv7-m/libc.a(lib_a-memchr-stub.o)
 .bss           0x0000000000000000        0x0 /Users/imac/Develop/stm32f4/arm_gcc/gcc-arm-none-eabi-4_8-2014q2/bin/../lib/gcc/arm-none-eabi/4.8.4/../../../../arm-none-eabi/lib/armv7-m/libc.a(lib_a-memchr-stub.o)
 .text          0x0000000000000000        0x0 /Users/imac/Develop/stm32f4/arm_gcc/gcc-arm-none-eabi-4_8-2014q2/bin/../lib/gcc/arm-none-eabi/4.8.4/../../../../arm-none-eabi/lib/armv7-m/libc.a(lib_a-memcmp.o)
 .data          0x0000000000000000        0x0 /Users/imac/Develop/stm32f4/arm_gcc/gcc-arm-none-eabi-4_8-2014q2/bin/../lib/gcc/arm-none-eabi/4.8.4/../../../../arm-none-eabi/lib/armv7-m/libc.a(lib_a-memcmp.o)
 .bss           0x0000000000000000        0x0 /Users/imac/Develop/stm32f4/arm_gcc/gcc-arm-none-eabi-4_8-2014q2/bin/../lib/gcc/arm-none-eabi/4.8.4/../../../../arm-none-eabi/lib/armv7-m/libc.a(lib_a-memcmp.o)
 .text          0x0000000000000000        0x0 /Users/imac/Develop/stm32f4/arm_gcc/gcc-arm-none-eabi-4_8-2014q2/bin/../lib/gcc/arm-none-eabi/4.8.4/../../../../arm-none-eabi/lib/armv7-m/libc.a(lib_a-__atexit.o)
 .data          0x0000000000000000        0x0 /Users/imac/Develop/stm32f4/arm_gcc/gcc-arm-none-eabi-4_8-2014q2/bin/../lib/gcc/arm-none-eabi/4.8.4/../../../../arm-none-eabi/lib/armv7-m/libc.a(lib_a-__atexit.o)
 .bss           0x0000000000000000        0x0 /Users/imac/Develop/stm32f4/arm_gcc/gcc-arm-none-eabi-4_8-2014q2/bin/../lib/gcc/arm-none-eabi/4.8.4/../../../../arm-none-eabi/lib/armv7-m/libc.a(lib_a-__atexit.o)
 .text          0x0000000000000000        0x0 /Users/imac/Develop/stm32f4/arm_gcc/gcc-arm-none-eabi-4_8-2014q2/bin/../lib/gcc/arm-none-eabi/4.8.4/armv7-m/crtend.o
 .data          0x0000000000000000        0x0 /Users/imac/Develop/stm32f4/arm_gcc/gcc-arm-none-eabi-4_8-2014q2/bin/../lib/gcc/arm-none-eabi/4.8.4/armv7-m/crtend.o
 .bss           0x0000000000000000        0x0 /Users/imac/Develop/stm32f4/arm_gcc/gcc-arm-none-eabi-4_8-2014q2/bin/../lib/gcc/arm-none-eabi/4.8.4/armv7-m/crtend.o
 .eh_frame      0x0000000000000000        0x4 /Users/imac/Develop/stm32f4/arm_gcc/gcc-arm-none-eabi-4_8-2014q2/bin/../lib/gcc/arm-none-eabi/4.8.4/armv7-m/crtend.o
 .jcr           0x0000000000000000        0x4 /Users/imac/Develop/stm32f4/arm_gcc/gcc-arm-none-eabi-4_8-2014q2/bin/../lib/gcc/arm-none-eabi/4.8.4/armv7-m/crtend.o
 .ARM.attributes
                0x0000000000000000       0x2d /Users/imac/Develop/stm32f4/arm_gcc/gcc-arm-none-eabi-4_8-2014q2/bin/../lib/gcc/arm-none-eabi/4.8.4/armv7-m/crtend.o
 .text          0x0000000000000000        0x0 /Users/imac/Develop/stm32f4/arm_gcc/gcc-arm-none-eabi-4_8-2014q2/bin/../lib/gcc/arm-none-eabi/4.8.4/armv7-m/crtn.o
 .data          0x0000000000000000        0x0 /Users/imac/Develop/stm32f4/arm_gcc/gcc-arm-none-eabi-4_8-2014q2/bin/../lib/gcc/arm-none-eabi/4.8.4/armv7-m/crtn.o
 .bss           0x0000000000000000        0x0 /Users/imac/Develop/stm32f4/arm_gcc/gcc-arm-none-eabi-4_8-2014q2/bin/../lib/gcc/arm-none-eabi/4.8.4/armv7-m/crtn.o

Memory Configuration

Name             Origin             Length             Attributes
FLASH            0x0000000008003000 0x000000000001cc00 xr
RAM              0x0000000020000000 0x0000000000005000 xrw
MEMORY_B1        0x0000000060000000 0x0000000000000000 xr
*default*        0x0000000000000000 0xffffffffffffffff

Linker script and memory map

LOAD /Users/imac/Develop/stm32f4/arm_gcc/gcc-arm-none-eabi-4_8-2014q2/bin/../lib/gcc/arm-none-eabi/4.8.4/armv7-m/crti.o
LOAD /Users/imac/Develop/stm32f4/arm_gcc/gcc-arm-none-eabi-4_8-2014q2/bin/../lib/gcc/arm-none-eabi/4.8.4/armv7-m/crtbegin.o
LOAD /Users/imac/Develop/stm32f4/arm_gcc/gcc-arm-none-eabi-4_8-2014q2/bin/../lib/gcc/arm-none-eabi/4.8.4/../../../../arm-none-eabi/lib/armv7-m/crt0.o
LOAD obj/SKYROVER/drv_adc.o
LOAD obj/SKYROVER/drv_adxl345.o
LOAD obj/SKYROVER/drv_bma280.o
LOAD obj/SKYROVER/drv_bmp085.o
LOAD obj/SKYROVER/drv_ms5611.o
LOAD obj/SKYROVER/drv_hcsr04.o
LOAD obj/SKYROVER/drv_hmc5883l.o
LOAD obj/SKYROVER/drv_ledring.o
LOAD obj/SKYROVER/drv_mma845x.o
LOAD obj/SKYROVER/drv_mpu3050.o
LOAD obj/SKYROVER/drv_mpu6050.o
LOAD obj/SKYROVER/drv_l3g4200d.o
LOAD obj/SKYROVER/drv_pwm.o
LOAD obj/SKYROVER/drv_spi.o
LOAD obj/SKYROVER/drv_timer.o
LOAD obj/SKYROVER/hexairbot.o
LOAD obj/SKYROVER/startup_stm32f10x_md_gcc.o
LOAD obj/SKYROVER/buzzer.o
LOAD obj/SKYROVER/cli.o
LOAD obj/SKYROVER/config.o
LOAD obj/SKYROVER/gps.o
LOAD obj/SKYROVER/imu.o
LOAD obj/SKYROVER/main.o
LOAD obj/SKYROVER/mixer.o
LOAD obj/SKYROVER/mw.o
LOAD obj/SKYROVER/sensors.o
LOAD obj/SKYROVER/serial.o
LOAD obj/SKYROVER/sbus.o
LOAD obj/SKYROVER/sumd.o
LOAD obj/SKYROVER/spektrum.o
LOAD obj/SKYROVER/telemetry.o
LOAD obj/SKYROVER/drv_gpio.o
LOAD obj/SKYROVER/drv_i2c.o
LOAD obj/SKYROVER/drv_i2c_soft.o
LOAD obj/SKYROVER/drv_system.o
LOAD obj/SKYROVER/drv_serial.o
LOAD obj/SKYROVER/drv_softserial.o
LOAD obj/SKYROVER/drv_uart.o
LOAD obj/SKYROVER/drv_vcom.o
LOAD obj/SKYROVER/drv_vcom_q.o
LOAD obj/SKYROVER/printf.o
LOAD obj/SKYROVER/utils.o
LOAD obj/SKYROVER/system_stm32f10x.o
LOAD obj/SKYROVER/misc.o
LOAD obj/SKYROVER/stm32f10x_adc.o
LOAD obj/SKYROVER/stm32f10x_bkp.o
LOAD obj/SKYROVER/stm32f10x_can.o
LOAD obj/SKYROVER/stm32f10x_cec.o
LOAD obj/SKYROVER/stm32f10x_crc.o
LOAD obj/SKYROVER/stm32f10x_dac.o
LOAD obj/SKYROVER/stm32f10x_dbgmcu.o
LOAD obj/SKYROVER/stm32f10x_dma.o
LOAD obj/SKYROVER/stm32f10x_exti.o
LOAD obj/SKYROVER/stm32f10x_flash.o
LOAD obj/SKYROVER/stm32f10x_fsmc.o
LOAD obj/SKYROVER/stm32f10x_gpio.o
LOAD obj/SKYROVER/stm32f10x_i2c.o
LOAD obj/SKYROVER/stm32f10x_iwdg.o
LOAD obj/SKYROVER/stm32f10x_pwr.o
LOAD obj/SKYROVER/stm32f10x_rcc.o
LOAD obj/SKYROVER/stm32f10x_rtc.o
LOAD obj/SKYROVER/stm32f10x_sdio.o
LOAD obj/SKYROVER/stm32f10x_spi.o
LOAD obj/SKYROVER/stm32f10x_tim.o
LOAD obj/SKYROVER/stm32f10x_usart.o
LOAD obj/SKYROVER/stm32f10x_wwdg.o
LOAD obj/SKYROVER/croutine.o
LOAD obj/SKYROVER/list.o
LOAD obj/SKYROVER/queue.o
LOAD obj/SKYROVER/tasks.o
LOAD obj/SKYROVER/timers.o
LOAD obj/SKYROVER/cmsis_os.o
LOAD obj/SKYROVER/heap_2.o
LOAD obj/SKYROVER/port.o
LOAD obj/SKYROVER/usb_core.o
LOAD obj/SKYROVER/usb_init.o
LOAD obj/SKYROVER/usb_int.o
LOAD obj/SKYROVER/usb_mem.o
LOAD obj/SKYROVER/usb_regs.o
LOAD obj/SKYROVER/usb_sil.o
LOAD obj/SKYROVER/hw_config.o
LOAD obj/SKYROVER/usb_desc.o
LOAD obj/SKYROVER/usb_endp.o
LOAD obj/SKYROVER/usb_istr.o
LOAD obj/SKYROVER/usb_prop.o
LOAD obj/SKYROVER/usb_pwr.o
LOAD /Users/imac/Develop/stm32f4/arm_gcc/gcc-arm-none-eabi-4_8-2014q2/bin/../lib/gcc/arm-none-eabi/4.8.4/../../../../arm-none-eabi/lib/armv7-m/libm.a
START GROUP
LOAD /Users/imac/Develop/stm32f4/arm_gcc/gcc-arm-none-eabi-4_8-2014q2/bin/../lib/gcc/arm-none-eabi/4.8.4/armv7-m/libgcc.a
LOAD /Users/imac/Develop/stm32f4/arm_gcc/gcc-arm-none-eabi-4_8-2014q2/bin/../lib/gcc/arm-none-eabi/4.8.4/../../../../arm-none-eabi/lib/armv7-m/libc.a
END GROUP
LOAD /Users/imac/Develop/stm32f4/arm_gcc/gcc-arm-none-eabi-4_8-2014q2/bin/../lib/gcc/arm-none-eabi/4.8.4/armv7-m/crtend.o
LOAD /Users/imac/Develop/stm32f4/arm_gcc/gcc-arm-none-eabi-4_8-2014q2/bin/../lib/gcc/arm-none-eabi/4.8.4/armv7-m/crtn.o
                0x0000000020005000                _estack = 0x20005000
                0x0000000000000000                _Min_Heap_Size = 0x0
                0x0000000000000400                _Min_Stack_Size = 0x400

.isr_vector     0x0000000008003000      0x10c
                0x0000000008003000                . = ALIGN (0x4)
 *(.isr_vector)
 .isr_vector    0x0000000008003000      0x10c obj/SKYROVER/startup_stm32f10x_md_gcc.o
                0x0000000008003000                g_pfnVectors
                0x000000000800310c                . = ALIGN (0x4)

.text           0x0000000008003110    0x142e4
                0x0000000008003110                . = ALIGN (0x4)
 *(.text)
 .text          0x0000000008003110       0x54 /Users/imac/Develop/stm32f4/arm_gcc/gcc-arm-none-eabi-4_8-2014q2/bin/../lib/gcc/arm-none-eabi/4.8.4/armv7-m/crtbegin.o
 .text          0x0000000008003164      0x370 /Users/imac/Develop/stm32f4/arm_gcc/gcc-arm-none-eabi-4_8-2014q2/bin/../lib/gcc/arm-none-eabi/4.8.4/armv7-m/libgcc.a(_arm_addsubdf3.o)
                0x0000000008003164                __aeabi_drsub
                0x000000000800316c                __subdf3
                0x000000000800316c                __aeabi_dsub
                0x0000000008003170                __aeabi_dadd
                0x0000000008003170                __adddf3
                0x00000000080033e8                __aeabi_ui2d
                0x00000000080033e8                __floatunsidf
                0x0000000008003408                __floatsidf
                0x0000000008003408                __aeabi_i2d
                0x000000000800342c                __extendsfdf2
                0x000000000800342c                __aeabi_f2d
                0x0000000008003468                __aeabi_ul2d
                0x0000000008003468                __floatundidf
                0x0000000008003478                __aeabi_l2d
                0x0000000008003478                __floatdidf
 .text          0x00000000080034d4      0x424 /Users/imac/Develop/stm32f4/arm_gcc/gcc-arm-none-eabi-4_8-2014q2/bin/../lib/gcc/arm-none-eabi/4.8.4/armv7-m/libgcc.a(_arm_muldivdf3.o)
                0x00000000080034d4                __aeabi_dmul
                0x00000000080034d4                __muldf3
                0x0000000008003728                __aeabi_ddiv
                0x0000000008003728                __divdf3
 .text          0x00000000080038f8      0x110 /Users/imac/Develop/stm32f4/arm_gcc/gcc-arm-none-eabi-4_8-2014q2/bin/../lib/gcc/arm-none-eabi/4.8.4/armv7-m/libgcc.a(_arm_cmpdf2.o)
                0x00000000080038f8                __gtdf2
                0x00000000080038f8                __gedf2
                0x0000000008003900                __ltdf2
                0x0000000008003900                __ledf2
                0x0000000008003908                __eqdf2
                0x0000000008003908                __nedf2
                0x0000000008003908                __cmpdf2
                0x0000000008003984                __aeabi_cdrcmple
                0x0000000008003994                __aeabi_cdcmple
                0x0000000008003994                __aeabi_cdcmpeq
                0x00000000080039a4                __aeabi_dcmpeq
                0x00000000080039b8                __aeabi_dcmplt
                0x00000000080039cc                __aeabi_dcmple
                0x00000000080039e0                __aeabi_dcmpge
                0x00000000080039f4                __aeabi_dcmpgt
 .text          0x0000000008003a08       0xa0 /Users/imac/Develop/stm32f4/arm_gcc/gcc-arm-none-eabi-4_8-2014q2/bin/../lib/gcc/arm-none-eabi/4.8.4/armv7-m/libgcc.a(_arm_truncdfsf2.o)
                0x0000000008003a08                __aeabi_d2f
                0x0000000008003a08                __truncdfsf2
 .text          0x0000000008003aa8      0x21c /Users/imac/Develop/stm32f4/arm_gcc/gcc-arm-none-eabi-4_8-2014q2/bin/../lib/gcc/arm-none-eabi/4.8.4/armv7-m/libgcc.a(_arm_addsubsf3.o)
                0x0000000008003aa8                __aeabi_frsub
                0x0000000008003ab0                __aeabi_fsub
                0x0000000008003ab0                __subsf3
                0x0000000008003ab4                __aeabi_fadd
                0x0000000008003ab4                __addsf3
                0x0000000008003c14                __aeabi_ui2f
                0x0000000008003c14                __floatunsisf
                0x0000000008003c1c                __floatsisf
                0x0000000008003c1c                __aeabi_i2f
                0x0000000008003c38                __aeabi_ul2f
                0x0000000008003c38                __floatundisf
                0x0000000008003c48                __aeabi_l2f
                0x0000000008003c48                __floatdisf
 .text          0x0000000008003cc4      0x2a0 /Users/imac/Develop/stm32f4/arm_gcc/gcc-arm-none-eabi-4_8-2014q2/bin/../lib/gcc/arm-none-eabi/4.8.4/armv7-m/libgcc.a(_arm_muldivsf3.o)
                0x0000000008003cc4                __mulsf3
                0x0000000008003cc4                __aeabi_fmul
                0x0000000008003e2c                __divsf3
                0x0000000008003e2c                __aeabi_fdiv
 .text          0x0000000008003f64       0xec /Users/imac/Develop/stm32f4/arm_gcc/gcc-arm-none-eabi-4_8-2014q2/bin/../lib/gcc/arm-none-eabi/4.8.4/armv7-m/libgcc.a(_arm_cmpsf2.o)
                0x0000000008003f64                __gesf2
                0x0000000008003f64                __gtsf2
                0x0000000008003f6c                __ltsf2
                0x0000000008003f6c                __lesf2
                0x0000000008003f74                __nesf2
                0x0000000008003f74                __eqsf2
                0x0000000008003f74                __cmpsf2
                0x0000000008003fd4                __aeabi_cfrcmple
                0x0000000008003fdc                __aeabi_cfcmpeq
                0x0000000008003fdc                __aeabi_cfcmple
                0x0000000008003fec                __aeabi_fcmpeq
                0x0000000008004000                __aeabi_fcmplt
                0x0000000008004014                __aeabi_fcmple
                0x0000000008004028                __aeabi_fcmpge
                0x000000000800403c                __aeabi_fcmpgt
 .text          0x0000000008004050       0x4c /Users/imac/Develop/stm32f4/arm_gcc/gcc-arm-none-eabi-4_8-2014q2/bin/../lib/gcc/arm-none-eabi/4.8.4/armv7-m/libgcc.a(_arm_fixsfsi.o)
                0x0000000008004050                __fixsfsi
                0x0000000008004050                __aeabi_f2iz
 .text          0x000000000800409c       0x40 /Users/imac/Develop/stm32f4/arm_gcc/gcc-arm-none-eabi-4_8-2014q2/bin/../lib/gcc/arm-none-eabi/4.8.4/armv7-m/libgcc.a(_arm_fixunssfsi.o)
                0x000000000800409c                __aeabi_f2uiz
                0x000000000800409c                __fixunssfsi
 .text          0x00000000080040dc       0xec /Users/imac/Develop/stm32f4/arm_gcc/gcc-arm-none-eabi-4_8-2014q2/bin/../lib/gcc/arm-none-eabi/4.8.4/../../../../arm-none-eabi/lib/armv7-m/libc.a(lib_a-memcpy.o)
                0x00000000080040dc                memcpy
 *(.text*)
 .text.adcInit  0x00000000080041c8       0xf0 obj/SKYROVER/drv_adc.o
                0x00000000080041c8                adcInit
 .text.adcGetChannel
                0x00000000080042b8       0x10 obj/SKYROVER/drv_adc.o
                0x00000000080042b8                adcGetChannel
 .text.adxl345Read
                0x00000000080042c8       0xe0 obj/SKYROVER/drv_adxl345.o
 .text.adxl345Init
                0x00000000080043a8       0x64 obj/SKYROVER/drv_adxl345.o
 .text.adxl345Detect
                0x000000000800440c       0x5c obj/SKYROVER/drv_adxl345.o
                0x000000000800440c                adxl345Detect
 .text.bma280Read
                0x0000000008004468       0x5c obj/SKYROVER/drv_bma280.o
 .text.bma280Init
                0x00000000080044c4       0x30 obj/SKYROVER/drv_bma280.o
 .text.bma280Detect
                0x00000000080044f4       0x3c obj/SKYROVER/drv_bma280.o
                0x00000000080044f4                bma280Detect
 .text.bmp085_calculate
                0x0000000008004530       0xdc obj/SKYROVER/drv_bmp085.o
 .text.bmp085_get_up
                0x000000000800460c       0x58 obj/SKYROVER/drv_bmp085.o
 .text.bmp085_get_ut
                0x0000000008004664       0x40 obj/SKYROVER/drv_bmp085.o
 .text.bmp085_start_up
                0x00000000080046a4       0x24 obj/SKYROVER/drv_bmp085.o
 .text.bmp085_start_ut
                0x00000000080046c8       0x14 obj/SKYROVER/drv_bmp085.o
 .text.EXTI15_10_IRQHandler
                0x00000000080046dc       0x24 obj/SKYROVER/drv_bmp085.o
                0x00000000080046dc                EXTI15_10_IRQHandler
 .text.bmp085Detect
                0x0000000008004700      0x1dc obj/SKYROVER/drv_bmp085.o
                0x0000000008004700                bmp085Detect
 .text.ms5611_calculate
                0x00000000080048dc      0x158 obj/SKYROVER/drv_ms5611.o
 .text.ms5611_read_adc
                0x0000000008004a34       0x28 obj/SKYROVER/drv_ms5611.o
 .text.ms5611_get_up
                0x0000000008004a5c       0x10 obj/SKYROVER/drv_ms5611.o
 .text.ms5611_get_ut
                0x0000000008004a6c       0x10 obj/SKYROVER/drv_ms5611.o
 .text.ms5611_start_up
                0x0000000008004a7c        0xa obj/SKYROVER/drv_ms5611.o
 .text.ms5611_start_ut
                0x0000000008004a86        0xa obj/SKYROVER/drv_ms5611.o
 .text.ms5611Detect
                0x0000000008004a90      0x138 obj/SKYROVER/drv_ms5611.o
                0x0000000008004a90                ms5611Detect
 .text.hmc5883lDetect
                0x0000000008004bc8       0x38 obj/SKYROVER/drv_hmc5883l.o
                0x0000000008004bc8                hmc5883lDetect
 .text.hmc5883lRead
                0x0000000008004c00       0x8c obj/SKYROVER/drv_hmc5883l.o
                0x0000000008004c00                hmc5883lRead
 .text.hmc5883lInit
                0x0000000008004c8c      0x1b4 obj/SKYROVER/drv_hmc5883l.o
                0x0000000008004c8c                hmc5883lInit
 .text.mma8452Read
                0x0000000008004e40       0x70 obj/SKYROVER/drv_mma845x.o
 .text.mma8452Init
                0x0000000008004eb0       0x90 obj/SKYROVER/drv_mma845x.o
 .text.mma8452Detect
                0x0000000008004f40       0x5c obj/SKYROVER/drv_mma845x.o
                0x0000000008004f40                mma8452Detect
 .text.mpu3050ReadTemp
                0x0000000008004f9c       0x32 obj/SKYROVER/drv_mpu3050.o
 *fill*         0x0000000008004fce        0x2 
 .text.mpu3050Read
                0x0000000008004fd0       0x68 obj/SKYROVER/drv_mpu3050.o
 .text.mpu3050Init
                0x0000000008005038       0x5c obj/SKYROVER/drv_mpu3050.o
 .text.mpu3050Detect
                0x0000000008005094       0x78 obj/SKYROVER/drv_mpu3050.o
                0x0000000008005094                mpu3050Detect
 .text.mpu6050AccInit
                0x000000000800510c       0x28 obj/SKYROVER/drv_mpu6050.o
 .text.mpu6050GyroRead
                0x0000000008005134       0x68 obj/SKYROVER/drv_mpu6050.o
 .text.mpu6050AccRead
                0x000000000800519c       0x54 obj/SKYROVER/drv_mpu6050.o
 .text.mpu6050GyroInit
                0x00000000080051f0       0xa8 obj/SKYROVER/drv_mpu6050.o
 .text.mpu6050Detect
                0x0000000008005298      0x128 obj/SKYROVER/drv_mpu6050.o
                0x0000000008005298                mpu6050Detect
 .text.l3g4200dRead
                0x00000000080053c0       0x68 obj/SKYROVER/drv_l3g4200d.o
 .text.l3g4200dInit
                0x0000000008005428       0x44 obj/SKYROVER/drv_l3g4200d.o
 .text.l3g4200dDetect
                0x000000000800546c       0x64 obj/SKYROVER/drv_l3g4200d.o
                0x000000000800546c                l3g4200dDetect
 .text.pwmWriteBrushed
                0x00000000080054d0       0x24 obj/SKYROVER/drv_pwm.o
 .text.pwmWriteStandard
                0x00000000080054f4       0x10 obj/SKYROVER/drv_pwm.o
 .text.pwmOutConfig
                0x0000000008005504      0x128 obj/SKYROVER/drv_pwm.o
 .text.ppmCallback
                0x000000000800562c       0x8c obj/SKYROVER/drv_pwm.o
 .text.pwmICConfig
                0x00000000080056b8       0x32 obj/SKYROVER/drv_pwm.o
                0x00000000080056b8                pwmICConfig
 *fill*         0x00000000080056ea        0x2 
 .text.pwmCallback
                0x00000000080056ec       0x5c obj/SKYROVER/drv_pwm.o
 .text.pwmInConfig
                0x0000000008005748       0x64 obj/SKYROVER/drv_pwm.o
 .text.pwmInit  0x00000000080057ac      0x150 obj/SKYROVER/drv_pwm.o
                0x00000000080057ac                pwmInit
 .text.pwmWriteMotor
                0x00000000080058fc       0x1c obj/SKYROVER/drv_pwm.o
                0x00000000080058fc                pwmWriteMotor
 .text.pwmWriteServo
                0x0000000008005918       0x1c obj/SKYROVER/drv_pwm.o
                0x0000000008005918                pwmWriteServo
 .text.pwmRead  0x0000000008005934        0xc obj/SKYROVER/drv_pwm.o
                0x0000000008005934                pwmRead
 .text.spiTransfer
                0x0000000008005940       0x54 obj/SKYROVER/drv_spi.o
                0x0000000008005940                spiTransfer
 .text.spiInit  0x0000000008005994       0xf4 obj/SKYROVER/drv_spi.o
                0x0000000008005994                spiInit
 .text.configureTimerChannelCallback
                0x0000000008005a88       0x48 obj/SKYROVER/drv_timer.o
                0x0000000008005a88                configureTimerChannelCallback
 .text.configureTimerInputCaptureCompareChannel
                0x0000000008005ad0       0x2c obj/SKYROVER/drv_timer.o
                0x0000000008005ad0                configureTimerInputCaptureCompareChannel
 .text.configureTimerCaptureCompareInterrupt
                0x0000000008005afc       0x1e obj/SKYROVER/drv_timer.o
                0x0000000008005afc                configureTimerCaptureCompareInterrupt
 .text.timerNVICConfig
                0x0000000008005b1a       0x22 obj/SKYROVER/drv_timer.o
                0x0000000008005b1a                timerNVICConfig
 .text.configTimeBase
                0x0000000008005b3c       0x44 obj/SKYROVER/drv_timer.o
                0x0000000008005b3c                configTimeBase
 .text.timerInConfig
                0x0000000008005b80       0x1c obj/SKYROVER/drv_timer.o
                0x0000000008005b80                timerInConfig
 .text.findTimerConfig
                0x0000000008005b9c       0x3c obj/SKYROVER/drv_timer.o
                0x0000000008005b9c                findTimerConfig
 .text.timCCxHandler
                0x0000000008005bd8       0x9e obj/SKYROVER/drv_timer.o
 *fill*         0x0000000008005c76        0x2 
 .text.TIM1_CC_IRQHandler
                0x0000000008005c78        0xc obj/SKYROVER/drv_timer.o
                0x0000000008005c78                TIM1_CC_IRQHandler
 .text.TIM2_IRQHandler
                0x0000000008005c84        0x8 obj/SKYROVER/drv_timer.o
                0x0000000008005c84                TIM2_IRQHandler
 .text.TIM3_IRQHandler
                0x0000000008005c8c        0xc obj/SKYROVER/drv_timer.o
                0x0000000008005c8c                TIM3_IRQHandler
 .text.TIM4_IRQHandler
                0x0000000008005c98        0xc obj/SKYROVER/drv_timer.o
                0x0000000008005c98                TIM4_IRQHandler
 .text.hexairbotReadRawRC
                0x0000000008005ca4        0xc obj/SKYROVER/hexairbot.o
 .text.hexairbotInit
                0x0000000008005cb0       0x18 obj/SKYROVER/hexairbot.o
                0x0000000008005cb0                hexairbotInit
 .text.hexairbotSetData
                0x0000000008005cc8       0x1c obj/SKYROVER/hexairbot.o
                0x0000000008005cc8                hexairbotSetData
 .text.hexairbotFrameComplete
                0x0000000008005ce4       0x14 obj/SKYROVER/hexairbot.o
                0x0000000008005ce4                hexairbotFrameComplete
 .text.Reset_Handler
                0x0000000008005cf8       0xb0 obj/SKYROVER/startup_stm32f10x_md_gcc.o
                0x0000000008005cf8                Reset_Handler
 .text.Default_Handler
                0x0000000008005da8        0x4 obj/SKYROVER/startup_stm32f10x_md_gcc.o
                0x0000000008005da8                BusFault_Handler
                0x0000000008005da8                DebugMon_Handler
                0x0000000008005da8                PVD_IRQHandler
                0x0000000008005da8                NMI_Handler
                0x0000000008005da8                EXTI3_IRQHandler
                0x0000000008005da8                EXTI0_IRQHandler
                0x0000000008005da8                UsageFault_Handler
                0x0000000008005da8                ADC1_2_IRQHandler
                0x0000000008005da8                SPI1_IRQHandler
                0x0000000008005da8                TAMPER_IRQHandler
                0x0000000008005da8                USART3_IRQHandler
                0x0000000008005da8                RTC_IRQHandler
                0x0000000008005da8                DMA1_Channel7_IRQHandler
                0x0000000008005da8                CAN1_RX1_IRQHandler
                0x0000000008005da8                DMA1_Channel6_IRQHandler
                0x0000000008005da8                RCC_IRQHandler
                0x0000000008005da8                TIM1_TRG_COM_IRQHandler
                0x0000000008005da8                DMA1_Channel1_IRQHandler
                0x0000000008005da8                Default_Handler
                0x0000000008005da8                EXTI9_5_IRQHandler
                0x0000000008005da8                SPI2_IRQHandler
                0x0000000008005da8                MemManage_Handler
                0x0000000008005da8                DMA1_Channel5_IRQHandler
                0x0000000008005da8                EXTI4_IRQHandler
                0x0000000008005da8                USB_HP_CAN1_TX_IRQHandler
                0x0000000008005da8                DMA1_Channel3_IRQHandler
                0x0000000008005da8                TIM1_UP_IRQHandler
                0x0000000008005da8                WWDG_IRQHandler
                0x0000000008005da8                TIM1_BRK_IRQHandler
                0x0000000008005da8                EXTI1_IRQHandler
                0x0000000008005da8                RTCAlarm_IRQHandler
                0x0000000008005da8                DMA1_Channel2_IRQHandler
                0x0000000008005da8                CAN1_SCE_IRQHandler
                0x0000000008005da8                FLASH_IRQHandler
                0x0000000008005da8                EXTI2_IRQHandler
 .text.beep     0x0000000008005dac       0x70 obj/SKYROVER/buzzer.o
 .text.beep_code
                0x0000000008005e1c       0xa8 obj/SKYROVER/buzzer.o
 .text.buzzer   0x0000000008005ec4      0x128 obj/SKYROVER/buzzer.o
                0x0000000008005ec4                buzzer
 .text.i2a      0x0000000008005fec       0x28 obj/SKYROVER/cli.o
 .text._atof    0x0000000008006014      0x12c obj/SKYROVER/cli.o
 .text.cliPrint
                0x0000000008006140       0x1c obj/SKYROVER/cli.o
 .text.cliVersion
                0x000000000800615c        0xc obj/SKYROVER/cli.o
 .text.cliHelp  0x0000000008006168       0x2c obj/SKYROVER/cli.o
 .text.cliStatus
                0x0000000008006194       0xe4 obj/SKYROVER/cli.o
 .text.cliCompare
                0x0000000008006278       0x1a obj/SKYROVER/cli.o
 *fill*         0x0000000008006292        0x2 
 .text.cliSave  0x0000000008006294       0x30 obj/SKYROVER/cli.o
 .text.cliMap   0x00000000080062c4       0xa4 obj/SKYROVER/cli.o
 .text.cliGpsPassthrough
                0x0000000008006368       0x20 obj/SKYROVER/cli.o
 .text.cliFeature
                0x0000000008006388       0xe8 obj/SKYROVER/cli.o
 .text.cliExit  0x0000000008006470       0x38 obj/SKYROVER/cli.o
 .text.cliDefaults
                0x00000000080064a8       0x2c obj/SKYROVER/cli.o
 .text.cliMixer
                0x00000000080064d4       0xa0 obj/SKYROVER/cli.o
 .text.cliProfile
                0x0000000008006574       0x4c obj/SKYROVER/cli.o
 .text.cliMotor
                0x00000000080065c0       0xa8 obj/SKYROVER/cli.o
 .text.cliAux   0x0000000008006668       0x60 obj/SKYROVER/cli.o
 .text.itoa     0x00000000080066c8       0x24 obj/SKYROVER/cli.o
                0x00000000080066c8                itoa
 .text.ftoa     0x00000000080066ec       0xd0 obj/SKYROVER/cli.o
 .text.cliPrintVar
                0x00000000080067bc       0xa0 obj/SKYROVER/cli.o
 .text.cliSet   0x000000000800685c      0x158 obj/SKYROVER/cli.o
 .text.cliDump  0x00000000080069b4      0x1b0 obj/SKYROVER/cli.o
 .text.cliCMix  0x0000000008006b64      0x248 obj/SKYROVER/cli.o
 .text.cliProcess
                0x0000000008006dac      0x1e4 obj/SKYROVER/cli.o
                0x0000000008006dac                cliProcess
 .text.validEEPROM
                0x0000000008006f90       0x44 obj/SKYROVER/config.o
 .text.parseRcChannels
                0x0000000008006fd4       0x30 obj/SKYROVER/config.o
                0x0000000008006fd4                parseRcChannels
 .text.readEEPROM
                0x0000000008007004      0x10c obj/SKYROVER/config.o
                0x0000000008007004                readEEPROM
 .text.writeEEPROM
                0x0000000008007110       0xcc obj/SKYROVER/config.o
                0x0000000008007110                writeEEPROM
 .text.sensors  0x00000000080071dc       0x14 obj/SKYROVER/config.o
                0x00000000080071dc                sensors
 .text.sensorsSet
                0x00000000080071f0       0x10 obj/SKYROVER/config.o
                0x00000000080071f0                sensorsSet
 .text.sensorsClear
                0x0000000008007200       0x10 obj/SKYROVER/config.o
                0x0000000008007200                sensorsClear
 .text.sensorsMask
                0x0000000008007210        0xc obj/SKYROVER/config.o
                0x0000000008007210                sensorsMask
 .text.feature  0x000000000800721c       0x14 obj/SKYROVER/config.o
                0x000000000800721c                feature
 .text.featureSet
                0x0000000008007230       0x10 obj/SKYROVER/config.o
                0x0000000008007230                featureSet
 .text.checkFirstTime
                0x0000000008007240      0x2f4 obj/SKYROVER/config.o
                0x0000000008007240                checkFirstTime
 .text.featureClear
                0x0000000008007534       0x10 obj/SKYROVER/config.o
                0x0000000008007534                featureClear
 .text.featureMask
                0x0000000008007544        0xc obj/SKYROVER/config.o
                0x0000000008007544                featureMask
 .text.gpsSetState
                0x0000000008007550       0x18 obj/SKYROVER/gps.o
 .text.GPS_calc_longitude_scaling
                0x0000000008007568       0x3c obj/SKYROVER/gps.o
 .text.GPS_distance_cm_bearing.isra.3
                0x00000000080075a4       0x84 obj/SKYROVER/gps.o
 .text.get_I.isra.4
                0x0000000008007628       0x4e obj/SKYROVER/gps.o
 *fill*         0x0000000008007676        0x2 
 .text.grab_fields.constprop.6
                0x0000000008007678       0x3c obj/SKYROVER/gps.o
 .text.gpsInitHardware
                0x00000000080076b4       0xd0 obj/SKYROVER/gps.o
                0x00000000080076b4                gpsInitHardware
 .text.gpsThread
                0x0000000008007784       0x78 obj/SKYROVER/gps.o
                0x0000000008007784                gpsThread
 .text.GPS_reset_home_position
                0x00000000080077fc       0x48 obj/SKYROVER/gps.o
                0x00000000080077fc                GPS_reset_home_position
 .text.GPS_reset_nav
                0x0000000008007844       0x58 obj/SKYROVER/gps.o
                0x0000000008007844                GPS_reset_nav
 .text.gpsSetPIDs
                0x000000000800789c       0xa4 obj/SKYROVER/gps.o
                0x000000000800789c                gpsSetPIDs
 .text.gpsInit  0x0000000008007940       0x70 obj/SKYROVER/gps.o
                0x0000000008007940                gpsInit
 .text.gpsSetPassthrough
                0x00000000080079b0       0x7c obj/SKYROVER/gps.o
                0x00000000080079b0                gpsSetPassthrough
 .text.GPS_set_next_wp
                0x0000000008007a2c       0x8c obj/SKYROVER/gps.o
                0x0000000008007a2c                GPS_set_next_wp
 .text.wrap_18000
                0x0000000008007ab8       0x24 obj/SKYROVER/gps.o
                0x0000000008007ab8                wrap_18000
 .text.GPS_coord_to_degrees
                0x0000000008007adc       0xa0 obj/SKYROVER/gps.o
                0x0000000008007adc                GPS_coord_to_degrees
 *fill*         0x0000000008007b7c        0x4 
 .text.gpsNewData
                0x0000000008007b80      0xbd8 obj/SKYROVER/gps.o
 .text.calculateHeading
                0x0000000008008758       0xf8 obj/SKYROVER/imu.o
 .text.imuInit  0x0000000008008850       0x58 obj/SKYROVER/imu.o
                0x0000000008008850                imuInit
 .text.rotateV  0x00000000080088a8      0x170 obj/SKYROVER/imu.o
                0x00000000080088a8                rotateV
 .text.applyDeadband
                0x0000000008008a18       0x1e obj/SKYROVER/imu.o
                0x0000000008008a18                applyDeadband
 *fill*         0x0000000008008a36        0x2 
 .text.acc_calc
                0x0000000008008a38      0x190 obj/SKYROVER/imu.o
                0x0000000008008a38                acc_calc
 .text.computeIMU
                0x0000000008008bc8      0x358 obj/SKYROVER/imu.o
                0x0000000008008bc8                computeIMU
 .text.accSum_reset
                0x0000000008008f20       0x20 obj/SKYROVER/imu.o
                0x0000000008008f20                accSum_reset
 .text.getEstimatedAltitude
                0x0000000008008f40      0x37c obj/SKYROVER/imu.o
                0x0000000008008f40                getEstimatedAltitude
 .text.Thread_Serial
                0x00000000080092bc       0x6c obj/SKYROVER/main.o
 .text.Thread_Loop
                0x0000000008009328       0x1c obj/SKYROVER/main.o
 .text._putc    0x0000000008009344        0xc obj/SKYROVER/main.o
 .text.startup.main
                0x0000000008009350      0x2bc obj/SKYROVER/main.o
                0x0000000008009350                main
 .text.HardFault_Handler
                0x000000000800960c       0x14 obj/SKYROVER/main.o
                0x000000000800960c                HardFault_Handler
 .text.servoMiddle
                0x0000000008009620       0x28 obj/SKYROVER/mixer.o
                0x0000000008009620                servoMiddle
 .text.mixerResetMotors
                0x0000000008009648       0x30 obj/SKYROVER/mixer.o
                0x0000000008009648                mixerResetMotors
 .text.mixerInit
                0x0000000008009678      0x114 obj/SKYROVER/mixer.o
                0x0000000008009678                mixerInit
 .text.mixerLoadMix
                0x000000000800978c       0x50 obj/SKYROVER/mixer.o
                0x000000000800978c                mixerLoadMix
 .text.writeServos
                0x00000000080097dc       0xc0 obj/SKYROVER/mixer.o
                0x00000000080097dc                writeServos
 .text.writeMotors
                0x000000000800989c       0x28 obj/SKYROVER/mixer.o
                0x000000000800989c                writeMotors
 .text.writeAllMotors
                0x00000000080098c4       0x24 obj/SKYROVER/mixer.o
                0x00000000080098c4                writeAllMotors
 .text.mixTable
                0x00000000080098e8      0x65c obj/SKYROVER/mixer.o
                0x00000000080098e8                mixTable
 .text.pidMultiWii
                0x0000000008009f44      0x238 obj/SKYROVER/mw.o
 .text.pidRewrite
                0x000000000800a17c      0x178 obj/SKYROVER/mw.o
 .text.blinkLED
                0x000000000800a2f4       0x4c obj/SKYROVER/mw.o
                0x000000000800a2f4                blinkLED
 .text.annexCode
                0x000000000800a340      0x418 obj/SKYROVER/mw.o
                0x000000000800a340                annexCode
 .text.pwmReadRawRC
                0x000000000800a758       0x28 obj/SKYROVER/mw.o
                0x000000000800a758                pwmReadRawRC
 .text.computeRC
                0x000000000800a780       0xb0 obj/SKYROVER/mw.o
                0x000000000800a780                computeRC
 .text.mwArm    0x000000000800a830       0x40 obj/SKYROVER/mw.o
                0x000000000800a830                mwArm
 .text.mwDisarm
                0x000000000800a870       0x10 obj/SKYROVER/mw.o
                0x000000000800a870                mwDisarm
 .text.setPIDController
                0x000000000800a880       0x1c obj/SKYROVER/mw.o
                0x000000000800a880                setPIDController
 .text.loop     0x000000000800a89c      0xae4 obj/SKYROVER/mw.o
                0x000000000800a89c                loop
 .text.sensorsAutodetect
                0x000000000800b380      0x1c8 obj/SKYROVER/sensors.o
                0x000000000800b380                sensorsAutodetect
 .text.batteryAdcToVoltage
                0x000000000800b548       0x3c obj/SKYROVER/sensors.o
                0x000000000800b548                batteryAdcToVoltage
 .text.batteryInit
                0x000000000800b584       0x54 obj/SKYROVER/sensors.o
                0x000000000800b584                batteryInit
 .text.ACC_getADC
                0x000000000800b5d8      0x1d4 obj/SKYROVER/sensors.o
                0x000000000800b5d8                ACC_getADC
 .text.Baro_Common
                0x000000000800b7ac       0x44 obj/SKYROVER/sensors.o
                0x000000000800b7ac                Baro_Common
 .text.Baro_update
                0x000000000800b7f0       0x70 obj/SKYROVER/sensors.o
                0x000000000800b7f0                Baro_update
 .text.Gyro_getADC
                0x000000000800b860      0x194 obj/SKYROVER/sensors.o
                0x000000000800b860                Gyro_getADC
 .text.Mag_init
                0x000000000800b9f4       0x20 obj/SKYROVER/sensors.o
                0x000000000800b9f4                Mag_init
 .text.Mag_getADC
                0x000000000800ba14      0x114 obj/SKYROVER/sensors.o
                0x000000000800ba14                Mag_getADC
 .text.serialize32
                0x000000000800bb28       0x64 obj/SKYROVER/serial.o
                0x000000000800bb28                serialize32
 .text.serialize16
                0x000000000800bb8c       0x40 obj/SKYROVER/serial.o
                0x000000000800bb8c                serialize16
 .text.serialize8
                0x000000000800bbcc       0x20 obj/SKYROVER/serial.o
                0x000000000800bbcc                serialize8
 .text.read8    0x000000000800bbec       0x18 obj/SKYROVER/serial.o
                0x000000000800bbec                read8
 .text.read16   0x000000000800bc04       0x14 obj/SKYROVER/serial.o
                0x000000000800bc04                read16
 .text.read32   0x000000000800bc18       0x12 obj/SKYROVER/serial.o
                0x000000000800bc18                read32
 *fill*         0x000000000800bc2a        0x2 
 .text.headSerialResponse
                0x000000000800bc2c       0x40 obj/SKYROVER/serial.o
                0x000000000800bc2c                headSerialResponse
 .text.headSerialReply
                0x000000000800bc6c        0x8 obj/SKYROVER/serial.o
                0x000000000800bc6c                headSerialReply
 .text.headSerialError
                0x000000000800bc74        0x8 obj/SKYROVER/serial.o
                0x000000000800bc74                headSerialError
 .text.tailSerialReply
                0x000000000800bc7c        0xc obj/SKYROVER/serial.o
                0x000000000800bc7c                tailSerialReply
 .text.s_struct
                0x000000000800bc88       0x20 obj/SKYROVER/serial.o
                0x000000000800bc88                s_struct
 .text.serializeNames
                0x000000000800bca8       0x12 obj/SKYROVER/serial.o
                0x000000000800bca8                serializeNames
 *fill*         0x000000000800bcba        0x2 
 .text.serializeBoxNamesReply
                0x000000000800bcbc       0x6c obj/SKYROVER/serial.o
                0x000000000800bcbc                serializeBoxNamesReply
 .text.serialInit
                0x000000000800bd28      0x104 obj/SKYROVER/serial.o
                0x000000000800bd28                serialInit
 .text.serialCom
                0x000000000800be2c      0xbb8 obj/SKYROVER/serial.o
                0x000000000800be2c                serialCom
 .text.sbusReadRawRC
                0x000000000800c9e4       0x20 obj/SKYROVER/sbus.o
 .text.sbusDataReceive
                0x000000000800ca04       0x58 obj/SKYROVER/sbus.o
 .text.sbusInit
                0x000000000800ca5c       0x54 obj/SKYROVER/sbus.o
                0x000000000800ca5c                sbusInit
 .text.sbusFrameComplete
                0x000000000800cab0       0xb0 obj/SKYROVER/sbus.o
                0x000000000800cab0                sbusFrameComplete
 .text.sumdReadRawRC
                0x000000000800cb60       0x1c obj/SKYROVER/sumd.o
 .text.sumdDataReceive
                0x000000000800cb7c       0x70 obj/SKYROVER/sumd.o
 .text.sumdInit
                0x000000000800cbec       0x30 obj/SKYROVER/sumd.o
                0x000000000800cbec                sumdInit
 .text.sumdFrameComplete
                0x000000000800cc1c       0x6c obj/SKYROVER/sumd.o
                0x000000000800cc1c                sumdFrameComplete
 .text.spektrumDataReceive
                0x000000000800cc88       0x68 obj/SKYROVER/spektrum.o
 .text.spektrumReadRawRC
                0x000000000800ccf0       0x90 obj/SKYROVER/spektrum.o
 .text.spektrumInit
                0x000000000800cd80       0x68 obj/SKYROVER/spektrum.o
                0x000000000800cd80                spektrumInit
 .text.spektrumFrameComplete
                0x000000000800cde8        0xc obj/SKYROVER/spektrum.o
                0x000000000800cde8                spektrumFrameComplete
 .text.sendDataHead
                0x000000000800cdf4       0x20 obj/SKYROVER/telemetry.o
 .text.sendTelemetryTail
                0x000000000800ce14       0x10 obj/SKYROVER/telemetry.o
 .text.serializeFrsky
                0x000000000800ce24       0x30 obj/SKYROVER/telemetry.o
 .text.serialize16
                0x000000000800ce54       0x16 obj/SKYROVER/telemetry.o
 *fill*         0x000000000800ce6a        0x2 
 .text.initTelemetry
                0x000000000800ce6c       0x30 obj/SKYROVER/telemetry.o
                0x000000000800ce6c                initTelemetry
 .text.updateTelemetryState
                0x000000000800ce9c       0x5c obj/SKYROVER/telemetry.o
                0x000000000800ce9c                updateTelemetryState
 .text.sendTelemetry
                0x000000000800cef8      0x314 obj/SKYROVER/telemetry.o
                0x000000000800cef8                sendTelemetry
 .text.gpioInit
                0x000000000800d20c       0x72 obj/SKYROVER/drv_gpio.o
                0x000000000800d20c                gpioInit
 .text.gpioExtiLineConfig
                0x000000000800d27e       0x2a obj/SKYROVER/drv_gpio.o
                0x000000000800d27e                gpioExtiLineConfig
 .text.i2c_ev_handler
                0x000000000800d2a8      0x300 obj/SKYROVER/drv_i2c.o
 .text.I2C1_EV_IRQHandler
                0x000000000800d5a8        0x4 obj/SKYROVER/drv_i2c.o
                0x000000000800d5a8                I2C1_EV_IRQHandler
 .text.I2C2_EV_IRQHandler
                0x000000000800d5ac        0x4 obj/SKYROVER/drv_i2c.o
                0x000000000800d5ac                I2C2_EV_IRQHandler
 .text.i2cInit  0x000000000800d5b0      0x134 obj/SKYROVER/drv_i2c.o
                0x000000000800d5b0                i2cInit
 .text.i2c_er_handler
                0x000000000800d6e4       0x98 obj/SKYROVER/drv_i2c.o
 .text.I2C1_ER_IRQHandler
                0x000000000800d77c        0x4 obj/SKYROVER/drv_i2c.o
                0x000000000800d77c                I2C1_ER_IRQHandler
 .text.I2C2_ER_IRQHandler
                0x000000000800d780        0x4 obj/SKYROVER/drv_i2c.o
                0x000000000800d780                I2C2_ER_IRQHandler
 .text.i2cWriteBuffer
                0x000000000800d784       0xb4 obj/SKYROVER/drv_i2c.o
                0x000000000800d784                i2cWriteBuffer
 .text.i2cWrite
                0x000000000800d838       0x14 obj/SKYROVER/drv_i2c.o
                0x000000000800d838                i2cWrite
 .text.i2cRead  0x000000000800d84c       0xb4 obj/SKYROVER/drv_i2c.o
                0x000000000800d84c                i2cRead
 .text.i2cGetErrorCounter
                0x000000000800d900        0xc obj/SKYROVER/drv_i2c.o
                0x000000000800d900                i2cGetErrorCounter
 .text.SysTick_Handler
                0x000000000800d90c       0x1c obj/SKYROVER/drv_system.o
                0x000000000800d90c                SysTick_Handler
 .text.micros   0x000000000800d928       0x34 obj/SKYROVER/drv_system.o
                0x000000000800d928                micros
 .text.millis   0x000000000800d95c        0xc obj/SKYROVER/drv_system.o
                0x000000000800d95c                millis
 .text.delayMicroseconds
                0x000000000800d968       0x16 obj/SKYROVER/drv_system.o
                0x000000000800d968                delayMicroseconds
 .text.delay    0x000000000800d97e       0x14 obj/SKYROVER/drv_system.o
                0x000000000800d97e                delay
 *fill*         0x000000000800d992        0x2 
 .text.systemInit
                0x000000000800d994      0x118 obj/SKYROVER/drv_system.o
                0x000000000800d994                systemInit
 .text.failureMode
                0x000000000800daac       0x38 obj/SKYROVER/drv_system.o
                0x000000000800daac                failureMode
 .text.systemReset
                0x000000000800dae4       0x20 obj/SKYROVER/drv_system.o
                0x000000000800dae4                systemReset
 .text.systemBeep
                0x000000000800db04        0x2 obj/SKYROVER/drv_system.o
                0x000000000800db04                systemBeep
 .text.serialWrite
                0x000000000800db06        0xa obj/SKYROVER/drv_serial.o
                0x000000000800db06                serialWrite
 .text.serialPrint
                0x000000000800db10       0x16 obj/SKYROVER/drv_serial.o
                0x000000000800db10                serialPrint
 .text.serialTotalBytesWaiting
                0x000000000800db26        0xa obj/SKYROVER/drv_serial.o
                0x000000000800db26                serialTotalBytesWaiting
 .text.serialRead
                0x000000000800db30        0xa obj/SKYROVER/drv_serial.o
                0x000000000800db30                serialRead
 .text.serialSetBaudRate
                0x000000000800db3a        0xa obj/SKYROVER/drv_serial.o
                0x000000000800db3a                serialSetBaudRate
 .text.isSerialTransmitBufferEmpty
                0x000000000800db44        0xa obj/SKYROVER/drv_serial.o
                0x000000000800db44                isSerialTransmitBufferEmpty
 .text.softSerialTotalBytesWaiting
                0x000000000800db4e       0x18 obj/SKYROVER/drv_softserial.o
                0x000000000800db4e                softSerialTotalBytesWaiting
 .text.softSerialWriteByte
                0x000000000800db66       0x18 obj/SKYROVER/drv_softserial.o
                0x000000000800db66                softSerialWriteByte
 .text.softSerialSetBaudRate
                0x000000000800db7e        0x2 obj/SKYROVER/drv_softserial.o
                0x000000000800db7e                softSerialSetBaudRate
 .text.isSoftSerialTransmitBufferEmpty
                0x000000000800db80        0xc obj/SKYROVER/drv_softserial.o
                0x000000000800db80                isSoftSerialTransmitBufferEmpty
 .text.softSerialReadByte
                0x000000000800db8c       0x22 obj/SKYROVER/drv_softserial.o
                0x000000000800db8c                softSerialReadByte
 .text.readRxSignal
                0x000000000800dbae       0x20 obj/SKYROVER/drv_softserial.o
                0x000000000800dbae                readRxSignal
 .text.setTxSignal
                0x000000000800dbce       0x2a obj/SKYROVER/drv_softserial.o
                0x000000000800dbce                setTxSignal
 .text.serialInputPortConfig
                0x000000000800dbf8       0x24 obj/SKYROVER/drv_softserial.o
                0x000000000800dbf8                serialInputPortConfig
 .text.serialTimerConfig
                0x000000000800dc1c       0x2c obj/SKYROVER/drv_softserial.o
                0x000000000800dc1c                serialTimerConfig
 .text.serialOutputPortConfig
                0x000000000800dc48       0x24 obj/SKYROVER/drv_softserial.o
                0x000000000800dc48                serialOutputPortConfig
 .text.setupSoftSerial1
                0x000000000800dc6c       0x8c obj/SKYROVER/drv_softserial.o
                0x000000000800dc6c                setupSoftSerial1
 .text.updateBufferIndex
                0x000000000800dcf8       0x12 obj/SKYROVER/drv_softserial.o
                0x000000000800dcf8                updateBufferIndex
 .text.searchForStartBit
                0x000000000800dd0a       0x30 obj/SKYROVER/drv_softserial.o
                0x000000000800dd0a                searchForStartBit
 .text.searchForStopBit
                0x000000000800dd3a       0x38 obj/SKYROVER/drv_softserial.o
                0x000000000800dd3a                searchForStopBit
 .text.readDataBit
                0x000000000800dd72       0x40 obj/SKYROVER/drv_softserial.o
                0x000000000800dd72                readDataBit
 .text.processRxState
                0x000000000800ddb2       0x28 obj/SKYROVER/drv_softserial.o
                0x000000000800ddb2                processRxState
 .text.processTxState
                0x000000000800ddda       0x7c obj/SKYROVER/drv_softserial.o
                0x000000000800ddda                processTxState
 *fill*         0x000000000800de56        0x2 
 .text.onSerialTimer
                0x000000000800de58       0x20 obj/SKYROVER/drv_softserial.o
                0x000000000800de58                onSerialTimer
 .text.uartTotalBytesWaiting
                0x000000000800de78       0x16 obj/SKYROVER/drv_uart.o
                0x000000000800de78                uartTotalBytesWaiting
 .text.isUartTransmitBufferEmpty
                0x000000000800de8e       0x16 obj/SKYROVER/drv_uart.o
                0x000000000800de8e                isUartTransmitBufferEmpty
 .text.uartSetBaudRate
                0x000000000800dea4       0x4a obj/SKYROVER/drv_uart.o
                0x000000000800dea4                uartSetBaudRate
 .text.uartStartTxDMA
                0x000000000800deee       0x30 obj/SKYROVER/drv_uart.o
 .text.uartRead
                0x000000000800df1e       0x32 obj/SKYROVER/drv_uart.o
                0x000000000800df1e                uartRead
 .text.uartWrite
                0x000000000800df50       0x3c obj/SKYROVER/drv_uart.o
                0x000000000800df50                uartWrite
 .text.serialUSART1
                0x000000000800df8c       0xa4 obj/SKYROVER/drv_uart.o
                0x000000000800df8c                serialUSART1
 .text.serialUSART2
                0x000000000800e030       0x9c obj/SKYROVER/drv_uart.o
                0x000000000800e030                serialUSART2
 .text.uartOpen
                0x000000000800e0cc      0x170 obj/SKYROVER/drv_uart.o
                0x000000000800e0cc                uartOpen
 .text.DMA1_Channel4_IRQHandler
                0x000000000800e23c       0x34 obj/SKYROVER/drv_uart.o
                0x000000000800e23c                DMA1_Channel4_IRQHandler
 .text.USART1_IRQHandler
                0x000000000800e270       0x3c obj/SKYROVER/drv_uart.o
                0x000000000800e270                USART1_IRQHandler
 .text.USART2_IRQHandler
                0x000000000800e2ac       0x74 obj/SKYROVER/drv_uart.o
                0x000000000800e2ac                USART2_IRQHandler
 .text.Hw_VCom_Init
                0x000000000800e320       0x24 obj/SKYROVER/drv_vcom.o
                0x000000000800e320                Hw_VCom_Init
 .text.Hw_VCom_Putch
                0x000000000800e344       0x14 obj/SKYROVER/drv_vcom.o
                0x000000000800e344                Hw_VCom_Putch
 .text.usb_putc
                0x000000000800e358        0x6 obj/SKYROVER/drv_vcom.o
 *fill*         0x000000000800e35e        0x2 
 .text.Hw_VCom_Printf
                0x000000000800e360       0x24 obj/SKYROVER/drv_vcom.o
                0x000000000800e360                Hw_VCom_Printf
 .text.Hw_VCom_Q_Init
                0x000000000800e384       0x14 obj/SKYROVER/drv_vcom_q.o
                0x000000000800e384                Hw_VCom_Q_Init
 .text.HW_VCOM_Q_SIZE
                0x000000000800e398       0x34 obj/SKYROVER/drv_vcom_q.o
                0x000000000800e398                HW_VCOM_Q_SIZE
 .text.Hw_VCom_Q_Push
                0x000000000800e3cc       0x5c obj/SKYROVER/drv_vcom_q.o
                0x000000000800e3cc                Hw_VCom_Q_Push
 .text.uli2a    0x000000000800e428       0x50 obj/SKYROVER/printf.o
 .text.ui2a     0x000000000800e478       0x50 obj/SKYROVER/printf.o
 .text.putchw   0x000000000800e4c8       0x48 obj/SKYROVER/printf.o
 .text.tfp_format
                0x000000000800e510      0x18a obj/SKYROVER/printf.o
                0x000000000800e510                tfp_format
 *fill*         0x000000000800e69a        0x2 
 .text.init_printf
                0x000000000800e69c       0x14 obj/SKYROVER/printf.o
                0x000000000800e69c                init_printf
 .text.tfp_printf
                0x000000000800e6b0       0x3c obj/SKYROVER/printf.o
                0x000000000800e6b0                tfp_printf
 .text.constrain
                0x000000000800e6ec       0x10 obj/SKYROVER/utils.o
                0x000000000800e6ec                constrain
 *fill*         0x000000000800e6fc        0x4 
 .text.initBoardAlignment
                0x000000000800e700      0x170 obj/SKYROVER/utils.o
                0x000000000800e700                initBoardAlignment
 .text.alignBoard
                0x000000000800e870       0xc4 obj/SKYROVER/utils.o
                0x000000000800e870                alignBoard
 .text.alignSensors
                0x000000000800e934       0x7c obj/SKYROVER/utils.o
                0x000000000800e934                alignSensors
 .text.SystemInit
                0x000000000800e9b0       0x4c obj/SKYROVER/system_stm32f10x.o
                0x000000000800e9b0                SystemInit
 .text.SystemCoreClockUpdate
                0x000000000800e9fc       0x6c obj/SKYROVER/system_stm32f10x.o
                0x000000000800e9fc                SystemCoreClockUpdate
 .text.SetSysClock
                0x000000000800ea68      0x150 obj/SKYROVER/system_stm32f10x.o
                0x000000000800ea68                SetSysClock
 .text.NVIC_PriorityGroupConfig
                0x000000000800ebb8       0x14 obj/SKYROVER/misc.o
                0x000000000800ebb8                NVIC_PriorityGroupConfig
 .text.NVIC_Init
                0x000000000800ebcc       0x68 obj/SKYROVER/misc.o
                0x000000000800ebcc                NVIC_Init
 .text.ADC_Init
                0x000000000800ec34       0x48 obj/SKYROVER/stm32f10x_adc.o
                0x000000000800ec34                ADC_Init
 .text.ADC_Cmd  0x000000000800ec7c       0x12 obj/SKYROVER/stm32f10x_adc.o
                0x000000000800ec7c                ADC_Cmd
 .text.ADC_DMACmd
                0x000000000800ec8e       0x12 obj/SKYROVER/stm32f10x_adc.o
                0x000000000800ec8e                ADC_DMACmd
 .text.ADC_ResetCalibration
                0x000000000800eca0        0xa obj/SKYROVER/stm32f10x_adc.o
                0x000000000800eca0                ADC_ResetCalibration
 .text.ADC_GetResetCalibrationStatus
                0x000000000800ecaa        0x8 obj/SKYROVER/stm32f10x_adc.o
                0x000000000800ecaa                ADC_GetResetCalibrationStatus
 .text.ADC_StartCalibration
                0x000000000800ecb2        0xa obj/SKYROVER/stm32f10x_adc.o
                0x000000000800ecb2                ADC_StartCalibration
 .text.ADC_GetCalibrationStatus
                0x000000000800ecbc        0x8 obj/SKYROVER/stm32f10x_adc.o
                0x000000000800ecbc                ADC_GetCalibrationStatus
 .text.ADC_SoftwareStartConvCmd
                0x000000000800ecc4       0x12 obj/SKYROVER/stm32f10x_adc.o
                0x000000000800ecc4                ADC_SoftwareStartConvCmd
 .text.ADC_RegularChannelConfig
                0x000000000800ecd6       0x90 obj/SKYROVER/stm32f10x_adc.o
                0x000000000800ecd6                ADC_RegularChannelConfig
 *fill*         0x000000000800ed66        0x2 
 .text.DMA_DeInit
                0x000000000800ed68       0xf0 obj/SKYROVER/stm32f10x_dma.o
                0x000000000800ed68                DMA_DeInit
 .text.DMA_Init
                0x000000000800ee58       0x3c obj/SKYROVER/stm32f10x_dma.o
                0x000000000800ee58                DMA_Init
 .text.DMA_StructInit
                0x000000000800ee94       0x1a obj/SKYROVER/stm32f10x_dma.o
                0x000000000800ee94                DMA_StructInit
 .text.DMA_Cmd  0x000000000800eeae       0x16 obj/SKYROVER/stm32f10x_dma.o
                0x000000000800eeae                DMA_Cmd
 .text.DMA_ITConfig
                0x000000000800eec4       0x10 obj/SKYROVER/stm32f10x_dma.o
                0x000000000800eec4                DMA_ITConfig
 .text.DMA_SetCurrDataCounter
                0x000000000800eed4        0x4 obj/SKYROVER/stm32f10x_dma.o
                0x000000000800eed4                DMA_SetCurrDataCounter
 .text.DMA_GetCurrDataCounter
                0x000000000800eed8        0x6 obj/SKYROVER/stm32f10x_dma.o
                0x000000000800eed8                DMA_GetCurrDataCounter
 *fill*         0x000000000800eede        0x2 
 .text.DMA_ClearITPendingBit
                0x000000000800eee0       0x14 obj/SKYROVER/stm32f10x_dma.o
                0x000000000800eee0                DMA_ClearITPendingBit
 .text.EXTI_Init
                0x000000000800eef4       0x74 obj/SKYROVER/stm32f10x_exti.o
                0x000000000800eef4                EXTI_Init
 .text.EXTI_GetITStatus
                0x000000000800ef68       0x1c obj/SKYROVER/stm32f10x_exti.o
                0x000000000800ef68                EXTI_GetITStatus
 .text.EXTI_ClearITPendingBit
                0x000000000800ef84        0xc obj/SKYROVER/stm32f10x_exti.o
                0x000000000800ef84                EXTI_ClearITPendingBit
 .text.FLASH_Unlock
                0x000000000800ef90       0x18 obj/SKYROVER/stm32f10x_flash.o
                0x000000000800ef90                FLASH_Unlock
 .text.FLASH_Lock
                0x000000000800efa8       0x10 obj/SKYROVER/stm32f10x_flash.o
                0x000000000800efa8                FLASH_Lock
 .text.FLASH_ClearFlag
                0x000000000800efb8        0xc obj/SKYROVER/stm32f10x_flash.o
                0x000000000800efb8                FLASH_ClearFlag
 .text.FLASH_GetBank1Status
                0x000000000800efc4       0x28 obj/SKYROVER/stm32f10x_flash.o
                0x000000000800efc4                FLASH_GetBank1Status
 .text.FLASH_WaitForLastOperation
                0x000000000800efec       0x22 obj/SKYROVER/stm32f10x_flash.o
                0x000000000800efec                FLASH_WaitForLastOperation
 *fill*         0x000000000800f00e        0x2 
 .text.FLASH_ErasePage
                0x000000000800f010       0x3c obj/SKYROVER/stm32f10x_flash.o
                0x000000000800f010                FLASH_ErasePage
 .text.FLASH_ProgramWord
                0x000000000800f04c       0x54 obj/SKYROVER/stm32f10x_flash.o
                0x000000000800f04c                FLASH_ProgramWord
 .text.GPIO_Init
                0x000000000800f0a0       0x9c obj/SKYROVER/stm32f10x_gpio.o
                0x000000000800f0a0                GPIO_Init
 .text.GPIO_SetBits
                0x000000000800f13c        0x4 obj/SKYROVER/stm32f10x_gpio.o
                0x000000000800f13c                GPIO_SetBits
 .text.GPIO_ResetBits
                0x000000000800f140        0x4 obj/SKYROVER/stm32f10x_gpio.o
                0x000000000800f140                GPIO_ResetBits
 .text.I2C_DeInit
                0x000000000800f144       0x34 obj/SKYROVER/stm32f10x_i2c.o
                0x000000000800f144                I2C_DeInit
 .text.I2C_Init
                0x000000000800f178       0xdc obj/SKYROVER/stm32f10x_i2c.o
                0x000000000800f178                I2C_Init
 .text.I2C_StructInit
                0x000000000800f254       0x1c obj/SKYROVER/stm32f10x_i2c.o
                0x000000000800f254                I2C_StructInit
 .text.I2C_Cmd  0x000000000800f270       0x18 obj/SKYROVER/stm32f10x_i2c.o
                0x000000000800f270                I2C_Cmd
 .text.I2C_GenerateSTART
                0x000000000800f288       0x18 obj/SKYROVER/stm32f10x_i2c.o
                0x000000000800f288                I2C_GenerateSTART
 .text.I2C_GenerateSTOP
                0x000000000800f2a0       0x18 obj/SKYROVER/stm32f10x_i2c.o
                0x000000000800f2a0                I2C_GenerateSTOP
 .text.I2C_AcknowledgeConfig
                0x000000000800f2b8       0x18 obj/SKYROVER/stm32f10x_i2c.o
                0x000000000800f2b8                I2C_AcknowledgeConfig
 .text.I2C_ITConfig
                0x000000000800f2d0       0x12 obj/SKYROVER/stm32f10x_i2c.o
                0x000000000800f2d0                I2C_ITConfig
 .text.I2C_SendData
                0x000000000800f2e2        0x4 obj/SKYROVER/stm32f10x_i2c.o
                0x000000000800f2e2                I2C_SendData
 .text.I2C_ReceiveData
                0x000000000800f2e6        0x6 obj/SKYROVER/stm32f10x_i2c.o
                0x000000000800f2e6                I2C_ReceiveData
 .text.I2C_Send7bitAddress
                0x000000000800f2ec       0x10 obj/SKYROVER/stm32f10x_i2c.o
                0x000000000800f2ec                I2C_Send7bitAddress
 .text.RCC_USBCLKConfig
                0x000000000800f2fc        0xc obj/SKYROVER/stm32f10x_rcc.o
                0x000000000800f2fc                RCC_USBCLKConfig
 .text.RCC_GetClocksFreq
                0x000000000800f308       0x98 obj/SKYROVER/stm32f10x_rcc.o
                0x000000000800f308                RCC_GetClocksFreq
 .text.RCC_AHBPeriphClockCmd
                0x000000000800f3a0       0x18 obj/SKYROVER/stm32f10x_rcc.o
                0x000000000800f3a0                RCC_AHBPeriphClockCmd
 .text.RCC_APB2PeriphClockCmd
                0x000000000800f3b8       0x18 obj/SKYROVER/stm32f10x_rcc.o
                0x000000000800f3b8                RCC_APB2PeriphClockCmd
 .text.RCC_APB1PeriphClockCmd
                0x000000000800f3d0       0x18 obj/SKYROVER/stm32f10x_rcc.o
                0x000000000800f3d0                RCC_APB1PeriphClockCmd
 .text.RCC_APB2PeriphResetCmd
                0x000000000800f3e8       0x18 obj/SKYROVER/stm32f10x_rcc.o
                0x000000000800f3e8                RCC_APB2PeriphResetCmd
 .text.RCC_APB1PeriphResetCmd
                0x000000000800f400       0x18 obj/SKYROVER/stm32f10x_rcc.o
                0x000000000800f400                RCC_APB1PeriphResetCmd
 .text.RCC_ClearFlag
                0x000000000800f418       0x10 obj/SKYROVER/stm32f10x_rcc.o
                0x000000000800f418                RCC_ClearFlag
 .text.SPI_I2S_DeInit
                0x000000000800f428       0x64 obj/SKYROVER/stm32f10x_spi.o
                0x000000000800f428                SPI_I2S_DeInit
 .text.SPI_Init
                0x000000000800f48c       0x3e obj/SKYROVER/stm32f10x_spi.o
                0x000000000800f48c                SPI_Init
 .text.SPI_Cmd  0x000000000800f4ca       0x18 obj/SKYROVER/stm32f10x_spi.o
                0x000000000800f4ca                SPI_Cmd
 .text.SPI_I2S_SendData
                0x000000000800f4e2        0x4 obj/SKYROVER/stm32f10x_spi.o
                0x000000000800f4e2                SPI_I2S_SendData
 .text.SPI_I2S_ReceiveData
                0x000000000800f4e6        0x6 obj/SKYROVER/stm32f10x_spi.o
                0x000000000800f4e6                SPI_I2S_ReceiveData
 .text.SPI_I2S_GetFlagStatus
                0x000000000800f4ec        0xc obj/SKYROVER/stm32f10x_spi.o
                0x000000000800f4ec                SPI_I2S_GetFlagStatus
 .text.TI1_Config
                0x000000000800f4f8       0x68 obj/SKYROVER/stm32f10x_tim.o
 .text.TI2_Config
                0x000000000800f560       0x78 obj/SKYROVER/stm32f10x_tim.o
 .text.TIM_TimeBaseInit
                0x000000000800f5d8       0x94 obj/SKYROVER/stm32f10x_tim.o
                0x000000000800f5d8                TIM_TimeBaseInit
 .text.TIM_OC1Init
                0x000000000800f66c       0x88 obj/SKYROVER/stm32f10x_tim.o
                0x000000000800f66c                TIM_OC1Init
 .text.TIM_OC2Init
                0x000000000800f6f4       0x88 obj/SKYROVER/stm32f10x_tim.o
                0x000000000800f6f4                TIM_OC2Init
 .text.TIM_OC3Init
                0x000000000800f77c       0x84 obj/SKYROVER/stm32f10x_tim.o
                0x000000000800f77c                TIM_OC3Init
 .text.TIM_OC4Init
                0x000000000800f800       0x68 obj/SKYROVER/stm32f10x_tim.o
                0x000000000800f800                TIM_OC4Init
 .text.TIM_TimeBaseStructInit
                0x000000000800f868       0x12 obj/SKYROVER/stm32f10x_tim.o
                0x000000000800f868                TIM_TimeBaseStructInit
 .text.TIM_OCStructInit
                0x000000000800f87a       0x14 obj/SKYROVER/stm32f10x_tim.o
                0x000000000800f87a                TIM_OCStructInit
 .text.TIM_ICStructInit
                0x000000000800f88e       0x10 obj/SKYROVER/stm32f10x_tim.o
                0x000000000800f88e                TIM_ICStructInit
 .text.TIM_Cmd  0x000000000800f89e       0x18 obj/SKYROVER/stm32f10x_tim.o
                0x000000000800f89e                TIM_Cmd
 .text.TIM_CtrlPWMOutputs
                0x000000000800f8b6       0x1c obj/SKYROVER/stm32f10x_tim.o
                0x000000000800f8b6                TIM_CtrlPWMOutputs
 .text.TIM_ITConfig
                0x000000000800f8d2       0x12 obj/SKYROVER/stm32f10x_tim.o
                0x000000000800f8d2                TIM_ITConfig
 .text.TIM_OC1PreloadConfig
                0x000000000800f8e4       0x10 obj/SKYROVER/stm32f10x_tim.o
                0x000000000800f8e4                TIM_OC1PreloadConfig
 .text.TIM_OC2PreloadConfig
                0x000000000800f8f4       0x14 obj/SKYROVER/stm32f10x_tim.o
                0x000000000800f8f4                TIM_OC2PreloadConfig
 .text.TIM_OC3PreloadConfig
                0x000000000800f908       0x10 obj/SKYROVER/stm32f10x_tim.o
                0x000000000800f908                TIM_OC3PreloadConfig
 .text.TIM_OC4PreloadConfig
                0x000000000800f918       0x14 obj/SKYROVER/stm32f10x_tim.o
                0x000000000800f918                TIM_OC4PreloadConfig
 .text.TIM_SetIC1Prescaler
                0x000000000800f92c       0x16 obj/SKYROVER/stm32f10x_tim.o
                0x000000000800f92c                TIM_SetIC1Prescaler
 .text.TIM_SetIC2Prescaler
                0x000000000800f942       0x1a obj/SKYROVER/stm32f10x_tim.o
                0x000000000800f942                TIM_SetIC2Prescaler
 .text.TIM_SetIC3Prescaler
                0x000000000800f95c       0x16 obj/SKYROVER/stm32f10x_tim.o
                0x000000000800f95c                TIM_SetIC3Prescaler
 .text.TIM_SetIC4Prescaler
                0x000000000800f972       0x1a obj/SKYROVER/stm32f10x_tim.o
                0x000000000800f972                TIM_SetIC4Prescaler
 .text.TIM_ICInit
                0x000000000800f98c      0x130 obj/SKYROVER/stm32f10x_tim.o
                0x000000000800f98c                TIM_ICInit
 .text.TIM_GetCapture1
                0x000000000800fabc        0x6 obj/SKYROVER/stm32f10x_tim.o
                0x000000000800fabc                TIM_GetCapture1
 .text.TIM_GetCapture2
                0x000000000800fac2        0x6 obj/SKYROVER/stm32f10x_tim.o
                0x000000000800fac2                TIM_GetCapture2
 .text.TIM_GetCapture3
                0x000000000800fac8        0x6 obj/SKYROVER/stm32f10x_tim.o
                0x000000000800fac8                TIM_GetCapture3
 .text.TIM_GetCapture4
                0x000000000800face        0x8 obj/SKYROVER/stm32f10x_tim.o
                0x000000000800face                TIM_GetCapture4
 .text.TIM_GetITStatus
                0x000000000800fad6       0x16 obj/SKYROVER/stm32f10x_tim.o
                0x000000000800fad6                TIM_GetITStatus
 .text.TIM_ClearITPendingBit
                0x000000000800faec        0x8 obj/SKYROVER/stm32f10x_tim.o
                0x000000000800faec                TIM_ClearITPendingBit
 .text.USART_Init
                0x000000000800faf4       0xa8 obj/SKYROVER/stm32f10x_usart.o
                0x000000000800faf4                USART_Init
 .text.USART_Cmd
                0x000000000800fb9c       0x18 obj/SKYROVER/stm32f10x_usart.o
                0x000000000800fb9c                USART_Cmd
 .text.USART_ITConfig
                0x000000000800fbb4       0x30 obj/SKYROVER/stm32f10x_usart.o
                0x000000000800fbb4                USART_ITConfig
 .text.USART_DMACmd
                0x000000000800fbe4       0x12 obj/SKYROVER/stm32f10x_usart.o
                0x000000000800fbe4                USART_DMACmd
 .text.vListInitialise
                0x000000000800fbf6       0x16 obj/SKYROVER/list.o
                0x000000000800fbf6                vListInitialise
 .text.vListInitialiseItem
                0x000000000800fc0c        0x6 obj/SKYROVER/list.o
                0x000000000800fc0c                vListInitialiseItem
 .text.vListInsertEnd
                0x000000000800fc12       0x18 obj/SKYROVER/list.o
                0x000000000800fc12                vListInsertEnd
 .text.vListInsert
                0x000000000800fc2a       0x30 obj/SKYROVER/list.o
                0x000000000800fc2a                vListInsert
 .text.uxListRemove
                0x000000000800fc5a       0x20 obj/SKYROVER/list.o
                0x000000000800fc5a                uxListRemove
 .text.prvCopyDataToQueue
                0x000000000800fc7a       0x66 obj/SKYROVER/queue.o
 .text.prvCopyDataFromQueue
                0x000000000800fce0       0x26 obj/SKYROVER/queue.o
 .text.prvUnlockQueue
                0x000000000800fd06       0x64 obj/SKYROVER/queue.o
 .text.xQueueGenericReset
                0x000000000800fd6a       0x62 obj/SKYROVER/queue.o
                0x000000000800fd6a                xQueueGenericReset
 .text.xQueueGenericCreate
                0x000000000800fdcc       0x42 obj/SKYROVER/queue.o
                0x000000000800fdcc                xQueueGenericCreate
 .text.xQueueGenericSend
                0x000000000800fe0e      0x100 obj/SKYROVER/queue.o
                0x000000000800fe0e                xQueueGenericSend
 .text.xQueueGenericSendFromISR
                0x000000000800ff0e       0x84 obj/SKYROVER/queue.o
                0x000000000800ff0e                xQueueGenericSendFromISR
 .text.xQueueGenericReceive
                0x000000000800ff92      0x11a obj/SKYROVER/queue.o
                0x000000000800ff92                xQueueGenericReceive
 .text.vQueueWaitForMessageRestricted
                0x00000000080100ac       0x3a obj/SKYROVER/queue.o
                0x00000000080100ac                vQueueWaitForMessageRestricted
 *fill*         0x00000000080100e6        0x2 
 .text.prvAddCurrentTaskToDelayedList
                0x00000000080100e8       0x50 obj/SKYROVER/tasks.o
 .text.xTaskGenericCreate
                0x0000000008010138      0x194 obj/SKYROVER/tasks.o
                0x0000000008010138                xTaskGenericCreate
 .text.vTaskStartScheduler
                0x00000000080102cc       0x5c obj/SKYROVER/tasks.o
                0x00000000080102cc                vTaskStartScheduler
 .text.vTaskSuspendAll
                0x0000000008010328       0x10 obj/SKYROVER/tasks.o
                0x0000000008010328                vTaskSuspendAll
 .text.xTaskGetTickCount
                0x0000000008010338       0x18 obj/SKYROVER/tasks.o
                0x0000000008010338                xTaskGetTickCount
 .text.xTaskIncrementTick
                0x0000000008010350      0x11c obj/SKYROVER/tasks.o
                0x0000000008010350                xTaskIncrementTick
 .text.xTaskResumeAll
                0x000000000801046c       0xc8 obj/SKYROVER/tasks.o
                0x000000000801046c                xTaskResumeAll
 .text.vTaskDelay
                0x0000000008010534       0x3c obj/SKYROVER/tasks.o
                0x0000000008010534                vTaskDelay
 .text.prvIdleTask
                0x0000000008010570       0x64 obj/SKYROVER/tasks.o
 .text.vTaskSwitchContext
                0x00000000080105d4       0x68 obj/SKYROVER/tasks.o
                0x00000000080105d4                vTaskSwitchContext
 .text.vTaskPlaceOnEventList
                0x000000000801063c       0x4c obj/SKYROVER/tasks.o
                0x000000000801063c                vTaskPlaceOnEventList
 .text.vTaskPlaceOnEventListRestricted
                0x0000000008010688       0x34 obj/SKYROVER/tasks.o
                0x0000000008010688                vTaskPlaceOnEventListRestricted
 .text.xTaskRemoveFromEventList
                0x00000000080106bc       0x74 obj/SKYROVER/tasks.o
                0x00000000080106bc                xTaskRemoveFromEventList
 .text.vTaskSetTimeOutState
                0x0000000008010730       0x20 obj/SKYROVER/tasks.o
                0x0000000008010730                vTaskSetTimeOutState
 .text.xTaskCheckForTimeOut
                0x0000000008010750       0x5c obj/SKYROVER/tasks.o
                0x0000000008010750                xTaskCheckForTimeOut
 .text.vTaskMissedYield
                0x00000000080107ac        0xc obj/SKYROVER/tasks.o
                0x00000000080107ac                vTaskMissedYield
 .text.xTaskGetCurrentTaskHandle
                0x00000000080107b8        0xc obj/SKYROVER/tasks.o
                0x00000000080107b8                xTaskGetCurrentTaskHandle
 .text.xTaskGetSchedulerState
                0x00000000080107c4       0x1c obj/SKYROVER/tasks.o
                0x00000000080107c4                xTaskGetSchedulerState
 .text.vTaskPriorityInherit
                0x00000000080107e0       0x68 obj/SKYROVER/tasks.o
                0x00000000080107e0                vTaskPriorityInherit
 .text.vTaskPriorityDisinherit
                0x0000000008010848       0x48 obj/SKYROVER/tasks.o
                0x0000000008010848                vTaskPriorityDisinherit
 .text.prvCheckForValidListAndQueue
                0x0000000008010890       0x4c obj/SKYROVER/timers.o
 .text.prvInsertTimerInActiveList
                0x00000000080108dc       0x3c obj/SKYROVER/timers.o
 .text.xTimerCreateTimerTask
                0x0000000008010918       0x44 obj/SKYROVER/timers.o
                0x0000000008010918                xTimerCreateTimerTask
 .text.xTimerGenericCommand
                0x000000000801095c       0x44 obj/SKYROVER/timers.o
                0x000000000801095c                xTimerGenericCommand
 .text.prvSwitchTimerLists.isra.1
                0x00000000080109a0       0x68 obj/SKYROVER/timers.o
 .text.prvTimerTask
                0x0000000008010a08      0x15c obj/SKYROVER/timers.o
 .text.osThreadCreate
                0x0000000008010b64       0x30 obj/SKYROVER/cmsis_os.o
                0x0000000008010b64                osThreadCreate
 .text.osKernelStart
                0x0000000008010b94       0x10 obj/SKYROVER/cmsis_os.o
                0x0000000008010b94                osKernelStart
 .text.osDelay  0x0000000008010ba4       0x10 obj/SKYROVER/cmsis_os.o
                0x0000000008010ba4                osDelay
 .text.pvPortMalloc
                0x0000000008010bb4       0xb8 obj/SKYROVER/heap_2.o
                0x0000000008010bb4                pvPortMalloc
 .text.vPortFree
                0x0000000008010c6c       0x40 obj/SKYROVER/heap_2.o
                0x0000000008010c6c                vPortFree
 .text.prvPortStartFirstTask
                0x0000000008010cac       0x14 obj/SKYROVER/port.o
 .text.pxPortInitialiseStack
                0x0000000008010cc0       0x1c obj/SKYROVER/port.o
                0x0000000008010cc0                pxPortInitialiseStack
 .text.SVC_Handler
                0x0000000008010cdc       0x20 obj/SKYROVER/port.o
                0x0000000008010cdc                SVC_Handler
 .text.vPortYield
                0x0000000008010cfc       0x18 obj/SKYROVER/port.o
                0x0000000008010cfc                vPortYield
 .text.ulPortSetInterruptMask
                0x0000000008010d14       0x10 obj/SKYROVER/port.o
                0x0000000008010d14                ulPortSetInterruptMask
 .text.prvTaskExitError
                0x0000000008010d24       0x1c obj/SKYROVER/port.o
 .text.vPortEnterCritical
                0x0000000008010d40       0x1c obj/SKYROVER/port.o
                0x0000000008010d40                vPortEnterCritical
 .text.vPortClearInterruptMask
                0x0000000008010d5c        0x6 obj/SKYROVER/port.o
                0x0000000008010d5c                vPortClearInterruptMask
 *fill*         0x0000000008010d62        0x2 
 .text.vPortExitCritical
                0x0000000008010d64       0x14 obj/SKYROVER/port.o
                0x0000000008010d64                vPortExitCritical
 .text.PendSV_Handler
                0x0000000008010d78       0x3c obj/SKYROVER/port.o
                0x0000000008010d78                PendSV_Handler
 .text.xPortSysTickHandler
                0x0000000008010db4       0x24 obj/SKYROVER/port.o
                0x0000000008010db4                xPortSysTickHandler
 .text.vPortSetupTimerInterrupt
                0x0000000008010dd8       0x24 obj/SKYROVER/port.o
                0x0000000008010dd8                vPortSetupTimerInterrupt
 .text.xPortStartScheduler
                0x0000000008010dfc       0x8c obj/SKYROVER/port.o
                0x0000000008010dfc                xPortStartScheduler
 .text.vPortValidateInterruptPriority
                0x0000000008010e88       0x44 obj/SKYROVER/port.o
                0x0000000008010e88                vPortValidateInterruptPriority
 .text.Standard_GetConfiguration
                0x0000000008010ecc       0x24 obj/SKYROVER/usb_core.o
                0x0000000008010ecc                Standard_GetConfiguration
 .text.Standard_GetInterface
                0x0000000008010ef0       0x24 obj/SKYROVER/usb_core.o
                0x0000000008010ef0                Standard_GetInterface
 .text.Standard_GetStatus
                0x0000000008010f14       0x90 obj/SKYROVER/usb_core.o
                0x0000000008010f14                Standard_GetStatus
 .text.DataStageIn
                0x0000000008010fa4       0xa4 obj/SKYROVER/usb_core.o
 .text.Standard_SetConfiguration
                0x0000000008011048       0x38 obj/SKYROVER/usb_core.o
                0x0000000008011048                Standard_SetConfiguration
 .text.Standard_SetInterface
                0x0000000008011080       0x48 obj/SKYROVER/usb_core.o
                0x0000000008011080                Standard_SetInterface
 .text.Standard_ClearFeature
                0x00000000080110c8       0xd8 obj/SKYROVER/usb_core.o
                0x00000000080110c8                Standard_ClearFeature
 .text.Standard_SetEndPointFeature
                0x00000000080111a0       0x8c obj/SKYROVER/usb_core.o
                0x00000000080111a0                Standard_SetEndPointFeature
 .text.Standard_SetDeviceFeature
                0x000000000801122c       0x24 obj/SKYROVER/usb_core.o
                0x000000000801122c                Standard_SetDeviceFeature
 .text.Standard_GetDescriptorData
                0x0000000008011250       0x1c obj/SKYROVER/usb_core.o
                0x0000000008011250                Standard_GetDescriptorData
 .text.Post0_Process
                0x000000000801126c       0x40 obj/SKYROVER/usb_core.o
                0x000000000801126c                Post0_Process
 .text.Setup0_Process
                0x00000000080112ac      0x2dc obj/SKYROVER/usb_core.o
                0x00000000080112ac                Setup0_Process
 .text.Out0_Process
                0x0000000008011588       0xd0 obj/SKYROVER/usb_core.o
                0x0000000008011588                Out0_Process
 .text.SetDeviceAddress
                0x0000000008011658       0x40 obj/SKYROVER/usb_core.o
                0x0000000008011658                SetDeviceAddress
 .text.In0_Process
                0x0000000008011698       0x5c obj/SKYROVER/usb_core.o
                0x0000000008011698                In0_Process
 .text.NOP_Process
                0x00000000080116f4        0x2 obj/SKYROVER/usb_core.o
                0x00000000080116f4                NOP_Process
 *fill*         0x00000000080116f6        0x2 
 .text.USB_Init
                0x00000000080116f8       0x38 obj/SKYROVER/usb_init.o
                0x00000000080116f8                USB_Init
 .text.CTR_LP   0x0000000008011730      0x16c obj/SKYROVER/usb_int.o
                0x0000000008011730                CTR_LP
 .text.UserToPMABufferCopy
                0x000000000801189c       0x30 obj/SKYROVER/usb_mem.o
                0x000000000801189c                UserToPMABufferCopy
 .text.PMAToUserBufferCopy
                0x00000000080118cc       0x24 obj/SKYROVER/usb_mem.o
                0x00000000080118cc                PMAToUserBufferCopy
 .text.SetBTABLE
                0x00000000080118f0       0x10 obj/SKYROVER/usb_regs.o
                0x00000000080118f0                SetBTABLE
 .text.SetEPType
                0x0000000008011900       0x1c obj/SKYROVER/usb_regs.o
                0x0000000008011900                SetEPType
 .text.SetEPTxStatus
                0x000000000801191c       0x32 obj/SKYROVER/usb_regs.o
                0x000000000801191c                SetEPTxStatus
 .text.SetEPRxStatus
                0x000000000801194e       0x32 obj/SKYROVER/usb_regs.o
                0x000000000801194e                SetEPRxStatus
 .text.SetEPTxValid
                0x0000000008011980       0x26 obj/SKYROVER/usb_regs.o
                0x0000000008011980                SetEPTxValid
 .text.SetEPRxValid
                0x00000000080119a6       0x26 obj/SKYROVER/usb_regs.o
                0x00000000080119a6                SetEPRxValid
 .text.Clear_Status_Out
                0x00000000080119cc       0x20 obj/SKYROVER/usb_regs.o
                0x00000000080119cc                Clear_Status_Out
 .text.ClearDTOG_RX
                0x00000000080119ec       0x24 obj/SKYROVER/usb_regs.o
                0x00000000080119ec                ClearDTOG_RX
 .text.ClearDTOG_TX
                0x0000000008011a10       0x24 obj/SKYROVER/usb_regs.o
                0x0000000008011a10                ClearDTOG_TX
 .text.SetEPTxAddr
                0x0000000008011a34       0x20 obj/SKYROVER/usb_regs.o
                0x0000000008011a34                SetEPTxAddr
 .text.SetEPRxAddr
                0x0000000008011a54       0x20 obj/SKYROVER/usb_regs.o
                0x0000000008011a54                SetEPRxAddr
 .text.GetEPTxAddr
                0x0000000008011a74       0x1c obj/SKYROVER/usb_regs.o
                0x0000000008011a74                GetEPTxAddr
 .text.GetEPRxAddr
                0x0000000008011a90       0x1c obj/SKYROVER/usb_regs.o
                0x0000000008011a90                GetEPRxAddr
 .text.SetEPTxCount
                0x0000000008011aac       0x1c obj/SKYROVER/usb_regs.o
                0x0000000008011aac                SetEPTxCount
 .text.SetEPRxCount
                0x0000000008011ac8       0x40 obj/SKYROVER/usb_regs.o
                0x0000000008011ac8                SetEPRxCount
 .text.GetEPRxCount
                0x0000000008011b08       0x20 obj/SKYROVER/usb_regs.o
                0x0000000008011b08                GetEPRxCount
 .text.ByteSwap
                0x0000000008011b28        0xa obj/SKYROVER/usb_regs.o
                0x0000000008011b28                ByteSwap
 *fill*         0x0000000008011b32        0x2 
 .text.USB_SIL_Init
                0x0000000008011b34       0x20 obj/SKYROVER/usb_sil.o
                0x0000000008011b34                USB_SIL_Init
 .text.USB_SIL_Read
                0x0000000008011b54       0x24 obj/SKYROVER/usb_sil.o
                0x0000000008011b54                USB_SIL_Read
 .text.IntToUnicode
                0x0000000008011b78       0x24 obj/SKYROVER/hw_config.o
 .text.USB_LP_CAN1_RX0_IRQHandler
                0x0000000008011b9c        0x4 obj/SKYROVER/hw_config.o
                0x0000000008011b9c                USB_LP_CAN1_RX0_IRQHandler
 .text.USBWakeUp_IRQHandler
                0x0000000008011ba0        0x8 obj/SKYROVER/hw_config.o
                0x0000000008011ba0                USBWakeUp_IRQHandler
 .text.Set_System
                0x0000000008011ba8       0x50 obj/SKYROVER/hw_config.o
                0x0000000008011ba8                Set_System
 .text.Set_USBClock
                0x0000000008011bf8       0x16 obj/SKYROVER/hw_config.o
                0x0000000008011bf8                Set_USBClock
 .text.USB_Interrupts_Config
                0x0000000008011c0e       0x3c obj/SKYROVER/hw_config.o
                0x0000000008011c0e                USB_Interrupts_Config
 *fill*         0x0000000008011c4a        0x2 
 .text.USB_Cable_Config
                0x0000000008011c4c       0x1c obj/SKYROVER/hw_config.o
                0x0000000008011c4c                USB_Cable_Config
 .text.USB_To_USART_Send_Data
                0x0000000008011c68       0x34 obj/SKYROVER/hw_config.o
                0x0000000008011c68                USB_To_USART_Send_Data
 .text.Handle_USBAsynchXfer
                0x0000000008011c9c       0x90 obj/SKYROVER/hw_config.o
                0x0000000008011c9c                Handle_USBAsynchXfer
 .text.USB_Send_Data
                0x0000000008011d2c       0x30 obj/SKYROVER/hw_config.o
                0x0000000008011d2c                USB_Send_Data
 .text.Get_SerialNum
                0x0000000008011d5c       0x34 obj/SKYROVER/hw_config.o
                0x0000000008011d5c                Get_SerialNum
 .text.EP1_IN_Callback
                0x0000000008011d90       0x64 obj/SKYROVER/usb_endp.o
                0x0000000008011d90                EP1_IN_Callback
 .text.EP3_OUT_Callback
                0x0000000008011df4       0x24 obj/SKYROVER/usb_endp.o
                0x0000000008011df4                EP3_OUT_Callback
 .text.SOF_Callback
                0x0000000008011e18       0x2c obj/SKYROVER/usb_endp.o
                0x0000000008011e18                SOF_Callback
 .text.USB_Istr
                0x0000000008011e44       0x6c obj/SKYROVER/usb_istr.o
                0x0000000008011e44                USB_Istr
 .text.Virtual_Com_Port_SetConfiguration
                0x0000000008011eb0       0x18 obj/SKYROVER/usb_prop.o
                0x0000000008011eb0                Virtual_Com_Port_SetConfiguration
 .text.Virtual_Com_Port_SetDeviceAddress
                0x0000000008011ec8        0xc obj/SKYROVER/usb_prop.o
                0x0000000008011ec8                Virtual_Com_Port_SetDeviceAddress
 .text.Virtual_Com_Port_Status_In
                0x0000000008011ed4       0x14 obj/SKYROVER/usb_prop.o
                0x0000000008011ed4                Virtual_Com_Port_Status_In
 .text.Virtual_Com_Port_Status_Out
                0x0000000008011ee8        0x2 obj/SKYROVER/usb_prop.o
                0x0000000008011ee8                Virtual_Com_Port_Status_Out
 *fill*         0x0000000008011eea        0x2 
 .text.Virtual_Com_Port_Data_Setup
                0x0000000008011eec       0x5c obj/SKYROVER/usb_prop.o
                0x0000000008011eec                Virtual_Com_Port_Data_Setup
 .text.Virtual_Com_Port_NoData_Setup
                0x0000000008011f48       0x24 obj/SKYROVER/usb_prop.o
                0x0000000008011f48                Virtual_Com_Port_NoData_Setup
 .text.Virtual_Com_Port_Get_Interface_Setting
                0x0000000008011f6c       0x10 obj/SKYROVER/usb_prop.o
                0x0000000008011f6c                Virtual_Com_Port_Get_Interface_Setting
 .text.Virtual_Com_Port_GetLineCoding
                0x0000000008011f7c       0x18 obj/SKYROVER/usb_prop.o
                0x0000000008011f7c                Virtual_Com_Port_GetLineCoding
 .text.Virtual_Com_Port_SetLineCoding
                0x0000000008011f94       0x18 obj/SKYROVER/usb_prop.o
                0x0000000008011f94                Virtual_Com_Port_SetLineCoding
 .text.Virtual_Com_Port_init
                0x0000000008011fac       0x24 obj/SKYROVER/usb_prop.o
                0x0000000008011fac                Virtual_Com_Port_init
 .text.Virtual_Com_Port_Reset
                0x0000000008011fd0       0xe0 obj/SKYROVER/usb_prop.o
                0x0000000008011fd0                Virtual_Com_Port_Reset
 .text.Virtual_Com_Port_GetDeviceDescriptor
                0x00000000080120b0        0xc obj/SKYROVER/usb_prop.o
                0x00000000080120b0                Virtual_Com_Port_GetDeviceDescriptor
 .text.Virtual_Com_Port_GetConfigDescriptor
                0x00000000080120bc        0xc obj/SKYROVER/usb_prop.o
                0x00000000080120bc                Virtual_Com_Port_GetConfigDescriptor
 .text.Virtual_Com_Port_GetStringDescriptor
                0x00000000080120c8       0x20 obj/SKYROVER/usb_prop.o
                0x00000000080120c8                Virtual_Com_Port_GetStringDescriptor
 .text.PowerOn  0x00000000080120e8       0x30 obj/SKYROVER/usb_pwr.o
                0x00000000080120e8                PowerOn
 .text.cosf     0x0000000008012118       0x6c /Users/imac/Develop/stm32f4/arm_gcc/gcc-arm-none-eabi-4_8-2014q2/bin/../lib/gcc/arm-none-eabi/4.8.4/../../../../arm-none-eabi/lib/armv7-m/libm.a(lib_a-sf_cos.o)
                0x0000000008012118                cosf
 .text.lrintf   0x0000000008012184       0x7c /Users/imac/Develop/stm32f4/arm_gcc/gcc-arm-none-eabi-4_8-2014q2/bin/../lib/gcc/arm-none-eabi/4.8.4/../../../../arm-none-eabi/lib/armv7-m/libm.a(lib_a-sf_lrint.o)
                0x0000000008012184                lrintf
 .text.sinf     0x0000000008012200       0x7c /Users/imac/Develop/stm32f4/arm_gcc/gcc-arm-none-eabi-4_8-2014q2/bin/../lib/gcc/arm-none-eabi/4.8.4/../../../../arm-none-eabi/lib/armv7-m/libm.a(lib_a-sf_sin.o)
                0x0000000008012200                sinf
 .text.atan2f   0x000000000801227c        0x4 /Users/imac/Develop/stm32f4/arm_gcc/gcc-arm-none-eabi-4_8-2014q2/bin/../lib/gcc/arm-none-eabi/4.8.4/../../../../arm-none-eabi/lib/armv7-m/libm.a(lib_a-wf_atan2.o)
                0x000000000801227c                atan2f
 .text.powf     0x0000000008012280      0x310 /Users/imac/Develop/stm32f4/arm_gcc/gcc-arm-none-eabi-4_8-2014q2/bin/../lib/gcc/arm-none-eabi/4.8.4/../../../../arm-none-eabi/lib/armv7-m/libm.a(lib_a-wf_pow.o)
                0x0000000008012280                powf
 .text.sqrtf    0x0000000008012590       0x9c /Users/imac/Develop/stm32f4/arm_gcc/gcc-arm-none-eabi-4_8-2014q2/bin/../lib/gcc/arm-none-eabi/4.8.4/../../../../arm-none-eabi/lib/armv7-m/libm.a(lib_a-wf_sqrt.o)
                0x0000000008012590                sqrtf
 .text.__ieee754_atan2f
                0x000000000801262c      0x120 /Users/imac/Develop/stm32f4/arm_gcc/gcc-arm-none-eabi-4_8-2014q2/bin/../lib/gcc/arm-none-eabi/4.8.4/../../../../arm-none-eabi/lib/armv7-m/libm.a(lib_a-ef_atan2.o)
                0x000000000801262c                __ieee754_atan2f
 .text.__ieee754_powf
                0x000000000801274c      0x6f8 /Users/imac/Develop/stm32f4/arm_gcc/gcc-arm-none-eabi-4_8-2014q2/bin/../lib/gcc/arm-none-eabi/4.8.4/../../../../arm-none-eabi/lib/armv7-m/libm.a(lib_a-ef_pow.o)
                0x000000000801274c                __ieee754_powf
 .text.__ieee754_rem_pio2f
                0x0000000008012e44      0x2e8 /Users/imac/Develop/stm32f4/arm_gcc/gcc-arm-none-eabi-4_8-2014q2/bin/../lib/gcc/arm-none-eabi/4.8.4/../../../../arm-none-eabi/lib/armv7-m/libm.a(lib_a-ef_rem_pio2.o)
                0x0000000008012e44                __ieee754_rem_pio2f
 .text.__ieee754_sqrtf
                0x000000000801312c       0xa8 /Users/imac/Develop/stm32f4/arm_gcc/gcc-arm-none-eabi-4_8-2014q2/bin/../lib/gcc/arm-none-eabi/4.8.4/../../../../arm-none-eabi/lib/armv7-m/libm.a(lib_a-ef_sqrt.o)
                0x000000000801312c                __ieee754_sqrtf
 .text.__kernel_cosf
                0x00000000080131d4      0x188 /Users/imac/Develop/stm32f4/arm_gcc/gcc-arm-none-eabi-4_8-2014q2/bin/../lib/gcc/arm-none-eabi/4.8.4/../../../../arm-none-eabi/lib/armv7-m/libm.a(lib_a-kf_cos.o)
                0x00000000080131d4                __kernel_cosf
 .text.__kernel_rem_pio2f
                0x000000000801335c      0x670 /Users/imac/Develop/stm32f4/arm_gcc/gcc-arm-none-eabi-4_8-2014q2/bin/../lib/gcc/arm-none-eabi/4.8.4/../../../../arm-none-eabi/lib/armv7-m/libm.a(lib_a-kf_rem_pio2.o)
                0x000000000801335c                __kernel_rem_pio2f
 .text.__kernel_sinf
                0x00000000080139cc       0xec /Users/imac/Develop/stm32f4/arm_gcc/gcc-arm-none-eabi-4_8-2014q2/bin/../lib/gcc/arm-none-eabi/4.8.4/../../../../arm-none-eabi/lib/armv7-m/libm.a(lib_a-kf_sin.o)
                0x00000000080139cc                __kernel_sinf
 .text.matherr  0x0000000008013ab8        0x4 /Users/imac/Develop/stm32f4/arm_gcc/gcc-arm-none-eabi-4_8-2014q2/bin/../lib/gcc/arm-none-eabi/4.8.4/../../../../arm-none-eabi/lib/armv7-m/libm.a(lib_a-s_matherr.o)
                0x0000000008013ab8                matherr
 .text.rint     0x0000000008013abc      0x118 /Users/imac/Develop/stm32f4/arm_gcc/gcc-arm-none-eabi-4_8-2014q2/bin/../lib/gcc/arm-none-eabi/4.8.4/../../../../arm-none-eabi/lib/armv7-m/libm.a(lib_a-s_rint.o)
                0x0000000008013abc                rint
 .text.atanf    0x0000000008013bd4      0x22c /Users/imac/Develop/stm32f4/arm_gcc/gcc-arm-none-eabi-4_8-2014q2/bin/../lib/gcc/arm-none-eabi/4.8.4/../../../../arm-none-eabi/lib/armv7-m/libm.a(lib_a-sf_atan.o)
                0x0000000008013bd4                atanf
 .text.fabsf    0x0000000008013e00        0x8 /Users/imac/Develop/stm32f4/arm_gcc/gcc-arm-none-eabi-4_8-2014q2/bin/../lib/gcc/arm-none-eabi/4.8.4/../../../../arm-none-eabi/lib/armv7-m/libm.a(lib_a-sf_fabs.o)
                0x0000000008013e00                fabsf
 .text.finitef  0x0000000008013e08       0x10 /Users/imac/Develop/stm32f4/arm_gcc/gcc-arm-none-eabi-4_8-2014q2/bin/../lib/gcc/arm-none-eabi/4.8.4/../../../../arm-none-eabi/lib/armv7-m/libm.a(lib_a-sf_finite.o)
                0x0000000008013e08                finitef
 .text.floorf   0x0000000008013e18       0x8c /Users/imac/Develop/stm32f4/arm_gcc/gcc-arm-none-eabi-4_8-2014q2/bin/../lib/gcc/arm-none-eabi/4.8.4/../../../../arm-none-eabi/lib/armv7-m/libm.a(lib_a-sf_floor.o)
                0x0000000008013e18                floorf
 .text.__fpclassifyf
                0x0000000008013ea4       0x34 /Users/imac/Develop/stm32f4/arm_gcc/gcc-arm-none-eabi-4_8-2014q2/bin/../lib/gcc/arm-none-eabi/4.8.4/../../../../arm-none-eabi/lib/armv7-m/libm.a(lib_a-sf_fpclassify.o)
                0x0000000008013ea4                __fpclassifyf
 .text.nanf     0x0000000008013ed8        0x8 /Users/imac/Develop/stm32f4/arm_gcc/gcc-arm-none-eabi-4_8-2014q2/bin/../lib/gcc/arm-none-eabi/4.8.4/../../../../arm-none-eabi/lib/armv7-m/libm.a(lib_a-sf_nan.o)
                0x0000000008013ed8                nanf
 .text.scalbnf  0x0000000008013ee0       0xb4 /Users/imac/Develop/stm32f4/arm_gcc/gcc-arm-none-eabi-4_8-2014q2/bin/../lib/gcc/arm-none-eabi/4.8.4/../../../../arm-none-eabi/lib/armv7-m/libm.a(lib_a-sf_scalbn.o)
                0x0000000008013ee0                scalbnf
 .text.copysignf
                0x0000000008013f94        0xc /Users/imac/Develop/stm32f4/arm_gcc/gcc-arm-none-eabi-4_8-2014q2/bin/../lib/gcc/arm-none-eabi/4.8.4/../../../../arm-none-eabi/lib/armv7-m/libm.a(lib_a-sf_copysign.o)
                0x0000000008013f94                copysignf
 .text.atoi     0x0000000008013fa0        0x8 /Users/imac/Develop/stm32f4/arm_gcc/gcc-arm-none-eabi-4_8-2014q2/bin/../lib/gcc/arm-none-eabi/4.8.4/../../../../arm-none-eabi/lib/armv7-m/libc.a(lib_a-atoi.o)
                0x0000000008013fa0                atoi
 .text.bsearch  0x0000000008013fa8       0x44 /Users/imac/Develop/stm32f4/arm_gcc/gcc-arm-none-eabi-4_8-2014q2/bin/../lib/gcc/arm-none-eabi/4.8.4/../../../../arm-none-eabi/lib/armv7-m/libc.a(lib_a-bsearch.o)
                0x0000000008013fa8                bsearch
 .text.__errno  0x0000000008013fec        0xc /Users/imac/Develop/stm32f4/arm_gcc/gcc-arm-none-eabi-4_8-2014q2/bin/../lib/gcc/arm-none-eabi/4.8.4/../../../../arm-none-eabi/lib/armv7-m/libc.a(lib_a-errno.o)
                0x0000000008013fec                __errno
 .text.__libc_init_array
                0x0000000008013ff8       0x50 /Users/imac/Develop/stm32f4/arm_gcc/gcc-arm-none-eabi-4_8-2014q2/bin/../lib/gcc/arm-none-eabi/4.8.4/../../../../arm-none-eabi/lib/armv7-m/libc.a(lib_a-init.o)
                0x0000000008013ff8                __libc_init_array
 .text.memset   0x0000000008014048       0x94 /Users/imac/Develop/stm32f4/arm_gcc/gcc-arm-none-eabi-4_8-2014q2/bin/../lib/gcc/arm-none-eabi/4.8.4/../../../../arm-none-eabi/lib/armv7-m/libc.a(lib_a-memset.o)
                0x0000000008014048                memset
 .text.strcat   0x00000000080140dc       0x4c /Users/imac/Develop/stm32f4/arm_gcc/gcc-arm-none-eabi-4_8-2014q2/bin/../lib/gcc/arm-none-eabi/4.8.4/../../../../arm-none-eabi/lib/armv7-m/libc.a(lib_a-strcat.o)
                0x00000000080140dc                strcat
 .text.strchr   0x0000000008014128       0xf4 /Users/imac/Develop/stm32f4/arm_gcc/gcc-arm-none-eabi-4_8-2014q2/bin/../lib/gcc/arm-none-eabi/4.8.4/../../../../arm-none-eabi/lib/armv7-m/libc.a(lib_a-strchr.o)
                0x0000000008014128                strchr
 .text.strcpy   0x000000000801421c       0xbc /Users/imac/Develop/stm32f4/arm_gcc/gcc-arm-none-eabi-4_8-2014q2/bin/../lib/gcc/arm-none-eabi/4.8.4/../../../../arm-none-eabi/lib/armv7-m/libc.a(lib_a-strcpy.o)
                0x000000000801421c                strcpy
 .text.strlen   0x00000000080142d8       0x60 /Users/imac/Develop/stm32f4/arm_gcc/gcc-arm-none-eabi-4_8-2014q2/bin/../lib/gcc/arm-none-eabi/4.8.4/../../../../arm-none-eabi/lib/armv7-m/libc.a(lib_a-strlen.o)
                0x00000000080142d8                strlen
 .text.strncasecmp
                0x0000000008014338       0x50 /Users/imac/Develop/stm32f4/arm_gcc/gcc-arm-none-eabi-4_8-2014q2/bin/../lib/gcc/arm-none-eabi/4.8.4/../../../../arm-none-eabi/lib/armv7-m/libc.a(lib_a-strncasecmp.o)
                0x0000000008014338                strncasecmp
 .text.strncpy  0x0000000008014388       0x64 /Users/imac/Develop/stm32f4/arm_gcc/gcc-arm-none-eabi-4_8-2014q2/bin/../lib/gcc/arm-none-eabi/4.8.4/../../../../arm-none-eabi/lib/armv7-m/libc.a(lib_a-strncpy.o)
                0x0000000008014388                strncpy
 .text.critical_factorization
                0x00000000080143ec       0xbc /Users/imac/Develop/stm32f4/arm_gcc/gcc-arm-none-eabi-4_8-2014q2/bin/../lib/gcc/arm-none-eabi/4.8.4/../../../../arm-none-eabi/lib/armv7-m/libc.a(lib_a-strstr.o)
 .text.two_way_long_needle
                0x00000000080144a8      0x1ec /Users/imac/Develop/stm32f4/arm_gcc/gcc-arm-none-eabi-4_8-2014q2/bin/../lib/gcc/arm-none-eabi/4.8.4/../../../../arm-none-eabi/lib/armv7-m/libc.a(lib_a-strstr.o)
 .text.strstr   0x0000000008014694      0x200 /Users/imac/Develop/stm32f4/arm_gcc/gcc-arm-none-eabi-4_8-2014q2/bin/../lib/gcc/arm-none-eabi/4.8.4/../../../../arm-none-eabi/lib/armv7-m/libc.a(lib_a-strstr.o)
                0x0000000008014694                strstr
 .text.strtok   0x0000000008014894       0x10 /Users/imac/Develop/stm32f4/arm_gcc/gcc-arm-none-eabi-4_8-2014q2/bin/../lib/gcc/arm-none-eabi/4.8.4/../../../../arm-none-eabi/lib/armv7-m/libc.a(lib_a-strtok.o)
                0x0000000008014894                strtok
 .text.__strtok_r
                0x00000000080148a4       0x64 /Users/imac/Develop/stm32f4/arm_gcc/gcc-arm-none-eabi-4_8-2014q2/bin/../lib/gcc/arm-none-eabi/4.8.4/../../../../arm-none-eabi/lib/armv7-m/libc.a(lib_a-strtok_r.o)
                0x00000000080148a4                __strtok_r
 .text._strtol_r
                0x0000000008014908      0x114 /Users/imac/Develop/stm32f4/arm_gcc/gcc-arm-none-eabi-4_8-2014q2/bin/../lib/gcc/arm-none-eabi/4.8.4/../../../../arm-none-eabi/lib/armv7-m/libc.a(lib_a-strtol.o)
                0x0000000008014908                _strtol_r
 .text.strtol   0x0000000008014a1c       0x18 /Users/imac/Develop/stm32f4/arm_gcc/gcc-arm-none-eabi-4_8-2014q2/bin/../lib/gcc/arm-none-eabi/4.8.4/../../../../arm-none-eabi/lib/armv7-m/libc.a(lib_a-strtol.o)
                0x0000000008014a1c                strtol
 .text.startup.register_fini
                0x0000000008014a34       0x14 /Users/imac/Develop/stm32f4/arm_gcc/gcc-arm-none-eabi-4_8-2014q2/bin/../lib/gcc/arm-none-eabi/4.8.4/../../../../arm-none-eabi/lib/armv7-m/libc.a(lib_a-__call_atexit.o)
 .text.atexit   0x0000000008014a48        0xc /Users/imac/Develop/stm32f4/arm_gcc/gcc-arm-none-eabi-4_8-2014q2/bin/../lib/gcc/arm-none-eabi/4.8.4/../../../../arm-none-eabi/lib/armv7-m/libc.a(lib_a-atexit.o)
                0x0000000008014a48                atexit
 .text.__libc_fini_array
                0x0000000008014a54       0x30 /Users/imac/Develop/stm32f4/arm_gcc/gcc-arm-none-eabi-4_8-2014q2/bin/../lib/gcc/arm-none-eabi/4.8.4/../../../../arm-none-eabi/lib/armv7-m/libc.a(lib_a-fini.o)
                0x0000000008014a54                __libc_fini_array
 .text.memchr   0x0000000008014a84       0x94 /Users/imac/Develop/stm32f4/arm_gcc/gcc-arm-none-eabi-4_8-2014q2/bin/../lib/gcc/arm-none-eabi/4.8.4/../../../../arm-none-eabi/lib/armv7-m/libc.a(lib_a-memchr-stub.o)
                0x0000000008014a84                memchr
 .text.memcmp   0x0000000008014b18       0x68 /Users/imac/Develop/stm32f4/arm_gcc/gcc-arm-none-eabi-4_8-2014q2/bin/../lib/gcc/arm-none-eabi/4.8.4/../../../../arm-none-eabi/lib/armv7-m/libc.a(lib_a-memcmp.o)
                0x0000000008014b18                memcmp
 .text.__register_exitproc
                0x0000000008014b80       0xa8 /Users/imac/Develop/stm32f4/arm_gcc/gcc-arm-none-eabi-4_8-2014q2/bin/../lib/gcc/arm-none-eabi/4.8.4/../../../../arm-none-eabi/lib/armv7-m/libc.a(lib_a-__atexit.o)
                0x0000000008014b80                __register_exitproc
 *(.rodata)
 .rodata        0x0000000008014c28        0x8 obj/SKYROVER/config.o
 .rodata        0x0000000008014c30       0x28 obj/SKYROVER/main.o
 .rodata        0x0000000008014c58       0x10 obj/SKYROVER/drv_system.o
 *(.rodata*)
 .rodata.airPPM
                0x0000000008014c68        0xc obj/SKYROVER/drv_pwm.o
 .rodata.multiPPM
                0x0000000008014c74        0xc obj/SKYROVER/drv_pwm.o
 .rodata.hardwareMaps
                0x0000000008014c80       0x10 obj/SKYROVER/drv_pwm.o
 .rodata.airPWM
                0x0000000008014c90        0xf obj/SKYROVER/drv_pwm.o
 .rodata.multiPWM
                0x0000000008014c9f        0xf obj/SKYROVER/drv_pwm.o
 *fill*         0x0000000008014cae        0x2 
 .rodata.timerHardware
                0x0000000008014cb0       0xe0 obj/SKYROVER/drv_timer.o
                0x0000000008014cb0                timerHardware
 .rodata.timers
                0x0000000008014d90       0x10 obj/SKYROVER/drv_timer.o
 .rodata.channels
                0x0000000008014da0        0x4 obj/SKYROVER/drv_timer.o
 .rodata.CSWTCH.20
                0x0000000008014da4       0x16 obj/SKYROVER/buzzer.o
 *fill*         0x0000000008014dba        0x2 
 .rodata.featureNames
                0x0000000008014dbc       0x40 obj/SKYROVER/cli.o
 .rodata.mixerNames
                0x0000000008014dfc       0x5c obj/SKYROVER/cli.o
 .rodata.cmdTable
                0x0000000008014e58       0xc0 obj/SKYROVER/cli.o
                0x0000000008014e58                cmdTable
 .rodata.accNames
                0x0000000008014f18       0x1c obj/SKYROVER/cli.o
 .rodata.str1.1
                0x0000000008014f34      0xdd0 obj/SKYROVER/cli.o
                                        0xe42 (size before relaxing)
 .rodata.sensorNames
                0x0000000008015d04       0x20 obj/SKYROVER/cli.o
 .rodata.valueTable
                0x0000000008015d24      0x820 obj/SKYROVER/cli.o
                0x0000000008015d24                valueTable
 .rodata.rcChannelLetters
                0x0000000008016544        0x9 obj/SKYROVER/config.o
                0x0000000008016544                rcChannelLetters
 .rodata.str1.1
                0x000000000801654d        0x9 obj/SKYROVER/config.o
 .rodata.str1.1
                0x0000000008016556       0xda obj/SKYROVER/gps.o
                                         0xdb (size before relaxing)
 .rodata.ubloxInit
                0x0000000008016630       0x8c obj/SKYROVER/gps.o
 .rodata.gpsInitData
                0x00000000080166bc       0x3c obj/SKYROVER/gps.o
 .rodata.str1.1
                0x00000000080166f8       0x6b obj/SKYROVER/main.o
 *fill*         0x0000000008016763        0x1 
 .rodata.mixerOctoFlatX
                0x0000000008016764       0x80 obj/SKYROVER/mixer.o
 .rodata.mixerTri
                0x00000000080167e4       0x30 obj/SKYROVER/mixer.o
 .rodata.mixerHex6H
                0x0000000008016814       0x60 obj/SKYROVER/mixer.o
 .rodata.mixerY6
                0x0000000008016874       0x60 obj/SKYROVER/mixer.o
 .rodata.mixers
                0x00000000080168d4       0xb8 obj/SKYROVER/mixer.o
                0x00000000080168d4                mixers
 .rodata.mixerOctoFlatP
                0x000000000801698c       0x80 obj/SKYROVER/mixer.o
 .rodata.mixerQuadX
                0x0000000008016a0c       0x40 obj/SKYROVER/mixer.o
 .rodata.mixerVtail4
                0x0000000008016a4c       0x40 obj/SKYROVER/mixer.o
 .rodata.mixerY4
                0x0000000008016a8c       0x40 obj/SKYROVER/mixer.o
 .rodata.mixerDualcopter
                0x0000000008016acc       0x20 obj/SKYROVER/mixer.o
 .rodata.mixerQuadP
                0x0000000008016aec       0x40 obj/SKYROVER/mixer.o
 .rodata.mixerHex6X
                0x0000000008016b2c       0x60 obj/SKYROVER/mixer.o
 .rodata.mixerHex6P
                0x0000000008016b8c       0x60 obj/SKYROVER/mixer.o
 .rodata.mixerOctoX8
                0x0000000008016bec       0x80 obj/SKYROVER/mixer.o
 .rodata.mixerBi
                0x0000000008016c6c       0x20 obj/SKYROVER/mixer.o
 .rodata.str1.1
                0x0000000008016c8c       0x4a obj/SKYROVER/sensors.o
 .rodata.pidnames
                0x0000000008016cd6       0x30 obj/SKYROVER/serial.o
 .rodata.str1.1
                0x0000000008016d06       0xaf obj/SKYROVER/serial.o
 *fill*         0x0000000008016db5        0x3 
 .rodata.softSerialVTable
                0x0000000008016db8       0x14 obj/SKYROVER/drv_softserial.o
                0x0000000008016db8                softSerialVTable
 .rodata.uartVTable
                0x0000000008016dcc       0x14 obj/SKYROVER/drv_uart.o
                0x0000000008016dcc                uartVTable
 .rodata.str1.1
                0x0000000008016de0        0x5 obj/SKYROVER/tasks.o
 .rodata.str1.1
                0x0000000008016de5        0x8 obj/SKYROVER/timers.o
 .rodata.Virtual_Com_Port_StringVendor
                0x0000000008016ded       0x26 obj/SKYROVER/usb_desc.o
                0x0000000008016ded                Virtual_Com_Port_StringVendor
 .rodata.Virtual_Com_Port_DeviceDescriptor
                0x0000000008016e13       0x12 obj/SKYROVER/usb_desc.o
                0x0000000008016e13                Virtual_Com_Port_DeviceDescriptor
 .rodata.Virtual_Com_Port_StringLangID
                0x0000000008016e25        0x4 obj/SKYROVER/usb_desc.o
                0x0000000008016e25                Virtual_Com_Port_StringLangID
 .rodata.Virtual_Com_Port_StringProduct
                0x0000000008016e29       0x32 obj/SKYROVER/usb_desc.o
                0x0000000008016e29                Virtual_Com_Port_StringProduct
 .rodata.Virtual_Com_Port_ConfigDescriptor
                0x0000000008016e5b       0x43 obj/SKYROVER/usb_desc.o
                0x0000000008016e5b                Virtual_Com_Port_ConfigDescriptor
 *fill*         0x0000000008016e9e        0x2 
 .rodata.TWO23  0x0000000008016ea0        0x8 /Users/imac/Develop/stm32f4/arm_gcc/gcc-arm-none-eabi-4_8-2014q2/bin/../lib/gcc/arm-none-eabi/4.8.4/../../../../arm-none-eabi/lib/armv7-m/libm.a(lib_a-sf_lrint.o)
 .rodata.str1.4
                0x0000000008016ea8        0x5 /Users/imac/Develop/stm32f4/arm_gcc/gcc-arm-none-eabi-4_8-2014q2/bin/../lib/gcc/arm-none-eabi/4.8.4/../../../../arm-none-eabi/lib/armv7-m/libm.a(lib_a-wf_pow.o)
                                          0x8 (size before relaxing)
 *fill*         0x0000000008016ead        0x3 
 .rodata.str1.4
                0x0000000008016eb0        0x6 /Users/imac/Develop/stm32f4/arm_gcc/gcc-arm-none-eabi-4_8-2014q2/bin/../lib/gcc/arm-none-eabi/4.8.4/../../../../arm-none-eabi/lib/armv7-m/libm.a(lib_a-wf_sqrt.o)
                                          0x8 (size before relaxing)
 *fill*         0x0000000008016eb6        0x2 
 .rodata.dp_h   0x0000000008016eb8        0x8 /Users/imac/Develop/stm32f4/arm_gcc/gcc-arm-none-eabi-4_8-2014q2/bin/../lib/gcc/arm-none-eabi/4.8.4/../../../../arm-none-eabi/lib/armv7-m/libm.a(lib_a-ef_pow.o)
 .rodata.dp_l   0x0000000008016ec0        0x8 /Users/imac/Develop/stm32f4/arm_gcc/gcc-arm-none-eabi-4_8-2014q2/bin/../lib/gcc/arm-none-eabi/4.8.4/../../../../arm-none-eabi/lib/armv7-m/libm.a(lib_a-ef_pow.o)
 .rodata.bp     0x0000000008016ec8        0x8 /Users/imac/Develop/stm32f4/arm_gcc/gcc-arm-none-eabi-4_8-2014q2/bin/../lib/gcc/arm-none-eabi/4.8.4/../../../../arm-none-eabi/lib/armv7-m/libm.a(lib_a-ef_pow.o)
 .rodata.str1.4
                0x0000000000000000        0x6 /Users/imac/Develop/stm32f4/arm_gcc/gcc-arm-none-eabi-4_8-2014q2/bin/../lib/gcc/arm-none-eabi/4.8.4/../../../../arm-none-eabi/lib/armv7-m/libm.a(lib_a-ef_pow.o)
                                          0x4 (size before relaxing)
 .rodata.npio2_hw
                0x0000000008016ed0       0x80 /Users/imac/Develop/stm32f4/arm_gcc/gcc-arm-none-eabi-4_8-2014q2/bin/../lib/gcc/arm-none-eabi/4.8.4/../../../../arm-none-eabi/lib/armv7-m/libm.a(lib_a-ef_rem_pio2.o)
 .rodata.two_over_pi
                0x0000000008016f50      0x318 /Users/imac/Develop/stm32f4/arm_gcc/gcc-arm-none-eabi-4_8-2014q2/bin/../lib/gcc/arm-none-eabi/4.8.4/../../../../arm-none-eabi/lib/armv7-m/libm.a(lib_a-ef_rem_pio2.o)
 .rodata.init_jk
                0x0000000008017268        0xc /Users/imac/Develop/stm32f4/arm_gcc/gcc-arm-none-eabi-4_8-2014q2/bin/../lib/gcc/arm-none-eabi/4.8.4/../../../../arm-none-eabi/lib/armv7-m/libm.a(lib_a-kf_rem_pio2.o)
 .rodata.PIo2   0x0000000008017274       0x2c /Users/imac/Develop/stm32f4/arm_gcc/gcc-arm-none-eabi-4_8-2014q2/bin/../lib/gcc/arm-none-eabi/4.8.4/../../../../arm-none-eabi/lib/armv7-m/libm.a(lib_a-kf_rem_pio2.o)
 .rodata.TWO52  0x00000000080172a0       0x10 /Users/imac/Develop/stm32f4/arm_gcc/gcc-arm-none-eabi-4_8-2014q2/bin/../lib/gcc/arm-none-eabi/4.8.4/../../../../arm-none-eabi/lib/armv7-m/libm.a(lib_a-s_rint.o)
 .rodata.atanlo
                0x00000000080172b0       0x10 /Users/imac/Develop/stm32f4/arm_gcc/gcc-arm-none-eabi-4_8-2014q2/bin/../lib/gcc/arm-none-eabi/4.8.4/../../../../arm-none-eabi/lib/armv7-m/libm.a(lib_a-sf_atan.o)
 .rodata.atanhi
                0x00000000080172c0       0x10 /Users/imac/Develop/stm32f4/arm_gcc/gcc-arm-none-eabi-4_8-2014q2/bin/../lib/gcc/arm-none-eabi/4.8.4/../../../../arm-none-eabi/lib/armv7-m/libm.a(lib_a-sf_atan.o)
 .rodata._ctype_
                0x00000000080172d0      0x104 /Users/imac/Develop/stm32f4/arm_gcc/gcc-arm-none-eabi-4_8-2014q2/bin/../lib/gcc/arm-none-eabi/4.8.4/../../../../arm-none-eabi/lib/armv7-m/libc.a(lib_a-ctype_.o)
                0x00000000080172d0                _ctype_
 .rodata.str1.4
                0x00000000080173d4        0x4 /Users/imac/Develop/stm32f4/arm_gcc/gcc-arm-none-eabi-4_8-2014q2/bin/../lib/gcc/arm-none-eabi/4.8.4/../../../../arm-none-eabi/lib/armv7-m/libc.a(lib_a-impure.o)
 .rodata._global_impure_ptr
                0x00000000080173d8        0x4 /Users/imac/Develop/stm32f4/arm_gcc/gcc-arm-none-eabi-4_8-2014q2/bin/../lib/gcc/arm-none-eabi/4.8.4/../../../../arm-none-eabi/lib/armv7-m/libc.a(lib_a-impure.o)
                0x00000000080173d8                _global_impure_ptr
 *(.glue_7)
 .glue_7        0x0000000000000000        0x0 linker stubs
 *(.glue_7t)
 .glue_7t       0x0000000000000000        0x0 linker stubs
 *(.eh_frame)
 .eh_frame      0x00000000080173dc        0x0 /Users/imac/Develop/stm32f4/arm_gcc/gcc-arm-none-eabi-4_8-2014q2/bin/../lib/gcc/arm-none-eabi/4.8.4/armv7-m/crtbegin.o
 *(.init)
 .init          0x00000000080173dc        0x4 /Users/imac/Develop/stm32f4/arm_gcc/gcc-arm-none-eabi-4_8-2014q2/bin/../lib/gcc/arm-none-eabi/4.8.4/armv7-m/crti.o
                0x00000000080173dc                _init
 .init          0x00000000080173e0        0x8 /Users/imac/Develop/stm32f4/arm_gcc/gcc-arm-none-eabi-4_8-2014q2/bin/../lib/gcc/arm-none-eabi/4.8.4/armv7-m/crtn.o
 *(.fini)
 .fini          0x00000000080173e8        0x4 /Users/imac/Develop/stm32f4/arm_gcc/gcc-arm-none-eabi-4_8-2014q2/bin/../lib/gcc/arm-none-eabi/4.8.4/armv7-m/crti.o
                0x00000000080173e8                _fini
 .fini          0x00000000080173ec        0x8 /Users/imac/Develop/stm32f4/arm_gcc/gcc-arm-none-eabi-4_8-2014q2/bin/../lib/gcc/arm-none-eabi/4.8.4/armv7-m/crtn.o
                0x00000000080173f4                . = ALIGN (0x4)
                0x00000000080173f4                _etext = .

.vfp11_veneer   0x00000000080173f4        0x0
 .vfp11_veneer  0x0000000000000000        0x0 linker stubs

.v4_bx          0x00000000080173f4        0x0
 .v4_bx         0x0000000000000000        0x0 linker stubs

.iplt           0x00000000080173f4        0x0
 .iplt          0x0000000000000000        0x0 /Users/imac/Develop/stm32f4/arm_gcc/gcc-arm-none-eabi-4_8-2014q2/bin/../lib/gcc/arm-none-eabi/4.8.4/armv7-m/crtbegin.o

.rel.dyn        0x00000000080173f4        0x0
 .rel.iplt      0x0000000000000000        0x0 /Users/imac/Develop/stm32f4/arm_gcc/gcc-arm-none-eabi-4_8-2014q2/bin/../lib/gcc/arm-none-eabi/4.8.4/armv7-m/crtbegin.o

.ARM.extab
 *(.ARM.extab* .gnu.linkonce.armextab.*)

.ARM            0x00000000080173f4        0x0
                0x00000000080173f4                __exidx_start = .
 *(.ARM.exidx*)
                0x00000000080173f4                __exidx_end = .

.preinit_array  0x00000000080173f4        0x0
                0x00000000080173f4                PROVIDE (__preinit_array_start, .)
 *(.preinit_array*)
                0x00000000080173f4                PROVIDE (__preinit_array_end, .)

.init_array     0x00000000080173f4        0x8
                0x00000000080173f4                PROVIDE (__init_array_start, .)
 *(SORT(.init_array.*))
 .init_array.00000
                0x00000000080173f4        0x4 /Users/imac/Develop/stm32f4/arm_gcc/gcc-arm-none-eabi-4_8-2014q2/bin/../lib/gcc/arm-none-eabi/4.8.4/../../../../arm-none-eabi/lib/armv7-m/libc.a(lib_a-__call_atexit.o)
 *(.init_array*)
 .init_array    0x00000000080173f8        0x4 /Users/imac/Develop/stm32f4/arm_gcc/gcc-arm-none-eabi-4_8-2014q2/bin/../lib/gcc/arm-none-eabi/4.8.4/armv7-m/crtbegin.o
                0x00000000080173fc                PROVIDE (__init_array_end, .)

.fini_array     0x00000000080173fc        0x4
                0x00000000080173fc                PROVIDE (__fini_array_start, .)
 *(.fini_array*)
 .fini_array    0x00000000080173fc        0x4 /Users/imac/Develop/stm32f4/arm_gcc/gcc-arm-none-eabi-4_8-2014q2/bin/../lib/gcc/arm-none-eabi/4.8.4/armv7-m/crtbegin.o
 *(SORT(.fini_array.*))
                0x0000000008017400                PROVIDE (__fini_array_end, .)
                0x0000000008017400                _sidata = .

.data           0x0000000020000000      0x6a4 load address 0x0000000008017400
                0x0000000020000000                . = ALIGN (0x4)
                0x0000000020000000                _sdata = .
 *(.data)
 *(.data*)
 .data.accAlign
                0x0000000020000000        0x1 obj/SKYROVER/drv_adxl345.o
 .data.accAlign
                0x0000000020000001        0x1 obj/SKYROVER/drv_bma280.o
 *fill*         0x0000000020000002        0x2 
 .data.magGain  0x0000000020000004        0xc obj/SKYROVER/drv_hmc5883l.o
 .data.magAlign
                0x0000000020000010        0x1 obj/SKYROVER/drv_hmc5883l.o
 .data.accAlign
                0x0000000020000011        0x1 obj/SKYROVER/drv_mma845x.o
 .data.mpuLowPassFilter
                0x0000000020000012        0x1 obj/SKYROVER/drv_mpu3050.o
 .data.gyroAlign
                0x0000000020000013        0x1 obj/SKYROVER/drv_mpu3050.o
 .data.accAlign
                0x0000000020000014        0x1 obj/SKYROVER/drv_mpu6050.o
 .data.mpuLowPassFilter
                0x0000000020000015        0x1 obj/SKYROVER/drv_mpu6050.o
 .data.gyroAlign
                0x0000000020000016        0x1 obj/SKYROVER/drv_mpu6050.o
 .data.gyroAlign
                0x0000000020000017        0x1 obj/SKYROVER/drv_l3g4200d.o
 .data.failsafeThreshold
                0x0000000020000018        0x2 obj/SKYROVER/drv_pwm.o
 *fill*         0x000000002000001a        0x2 
 .data.GPS_scaleLonDown
                0x000000002000001c        0x4 obj/SKYROVER/gps.o
 .data.EstN.9626
                0x0000000020000020        0xc obj/SKYROVER/imu.o
 .data.servo    0x000000002000002c       0x10 obj/SKYROVER/mixer.o
                0x000000002000002c                servo
 .data.batteryCellCount
                0x000000002000003c        0x1 obj/SKYROVER/mw.o
                0x000000002000003c                batteryCellCount
 .data.GPSNavReset.9706
                0x000000002000003d        0x1 obj/SKYROVER/mw.o
 *fill*         0x000000002000003e        0x2 
 .data.pid_controller
                0x0000000020000040        0x4 obj/SKYROVER/mw.o
                0x0000000020000040                pid_controller
 .data.acc_1G   0x0000000020000044        0x2 obj/SKYROVER/sensors.o
                0x0000000020000044                acc_1G
 *fill*         0x0000000020000046        0x2 
 .data.boxes    0x0000000020000048      0x108 obj/SKYROVER/serial.o
                0x0000000020000048                boxes
 .data.standardBoardAlignment
                0x0000000020000150        0x1 obj/SKYROVER/utils.o
 .data.AHBPrescTable
                0x0000000020000151       0x10 obj/SKYROVER/system_stm32f10x.o
                0x0000000020000151                AHBPrescTable
 *fill*         0x0000000020000161        0x3 
 .data.hse_value
                0x0000000020000164        0x4 obj/SKYROVER/system_stm32f10x.o
                0x0000000020000164                hse_value
 .data.SystemCoreClock
                0x0000000020000168        0x4 obj/SKYROVER/system_stm32f10x.o
                0x0000000020000168                SystemCoreClock
 .data.ADCPrescTable
                0x000000002000016c        0x4 obj/SKYROVER/stm32f10x_rcc.o
 .data.APBAHBPrescTable
                0x0000000020000170       0x10 obj/SKYROVER/stm32f10x_rcc.o
 .data.xNextTaskUnblockTime
                0x0000000020000180        0x4 obj/SKYROVER/tasks.o
 .data.xFreeBytesRemaining
                0x0000000020000184        0x4 obj/SKYROVER/heap_2.o
 .data.uxCriticalNesting
                0x0000000020000188        0x4 obj/SKYROVER/port.o
 .data.Virtual_Com_Port_StringSerial
                0x000000002000018c       0x1a obj/SKYROVER/usb_desc.o
                0x000000002000018c                Virtual_Com_Port_StringSerial
 *fill*         0x00000000200001a6        0x2 
 .data.pEpInt_IN
                0x00000000200001a8       0x1c obj/SKYROVER/usb_istr.o
                0x00000000200001a8                pEpInt_IN
 .data.pEpInt_OUT
                0x00000000200001c4       0x1c obj/SKYROVER/usb_istr.o
                0x00000000200001c4                pEpInt_OUT
 .data.Config_Descriptor
                0x00000000200001e0        0x8 obj/SKYROVER/usb_prop.o
                0x00000000200001e0                Config_Descriptor
 .data.Device_Property
                0x00000000200001e8       0x30 obj/SKYROVER/usb_prop.o
                0x00000000200001e8                Device_Property
 .data.User_Standard_Requests
                0x0000000020000218       0x24 obj/SKYROVER/usb_prop.o
                0x0000000020000218                User_Standard_Requests
 .data.Device_Descriptor
                0x000000002000023c        0x8 obj/SKYROVER/usb_prop.o
                0x000000002000023c                Device_Descriptor
 .data.String_Descriptor
                0x0000000020000244       0x20 obj/SKYROVER/usb_prop.o
                0x0000000020000244                String_Descriptor
 .data.linecoding
                0x0000000020000264        0x8 obj/SKYROVER/usb_prop.o
                0x0000000020000264                linecoding
 .data.Device_Table
                0x000000002000026c        0x2 obj/SKYROVER/usb_prop.o
                0x000000002000026c                Device_Table
 .data.__fdlib_version
                0x000000002000026e        0x1 /Users/imac/Develop/stm32f4/arm_gcc/gcc-arm-none-eabi-4_8-2014q2/bin/../lib/gcc/arm-none-eabi/4.8.4/../../../../arm-none-eabi/lib/armv7-m/libm.a(lib_a-s_lib_ver.o)
                0x000000002000026e                __fdlib_version
 *fill*         0x000000002000026f        0x1 
 .data.__ctype_ptr__
                0x0000000020000270        0x4 /Users/imac/Develop/stm32f4/arm_gcc/gcc-arm-none-eabi-4_8-2014q2/bin/../lib/gcc/arm-none-eabi/4.8.4/../../../../arm-none-eabi/lib/armv7-m/libc.a(lib_a-ctype_.o)
                0x0000000020000270                __ctype_ptr__
 *fill*         0x0000000020000274        0x4 
 .data.impure_data
                0x0000000020000278      0x428 /Users/imac/Develop/stm32f4/arm_gcc/gcc-arm-none-eabi-4_8-2014q2/bin/../lib/gcc/arm-none-eabi/4.8.4/../../../../arm-none-eabi/lib/armv7-m/libc.a(lib_a-impure.o)
 .data._impure_ptr
                0x00000000200006a0        0x4 /Users/imac/Develop/stm32f4/arm_gcc/gcc-arm-none-eabi-4_8-2014q2/bin/../lib/gcc/arm-none-eabi/4.8.4/../../../../arm-none-eabi/lib/armv7-m/libc.a(lib_a-impure.o)
                0x00000000200006a0                _impure_ptr
                0x00000000200006a4                . = ALIGN (0x4)
                0x00000000200006a4                _edata = .

.jcr            0x00000000200006a4        0x0 load address 0x0000000008017aa4
 .jcr           0x00000000200006a4        0x0 /Users/imac/Develop/stm32f4/arm_gcc/gcc-arm-none-eabi-4_8-2014q2/bin/../lib/gcc/arm-none-eabi/4.8.4/armv7-m/crtbegin.o

.igot.plt       0x00000000200006a4        0x0 load address 0x0000000008017aa4
 .igot.plt      0x0000000000000000        0x0 /Users/imac/Develop/stm32f4/arm_gcc/gcc-arm-none-eabi-4_8-2014q2/bin/../lib/gcc/arm-none-eabi/4.8.4/armv7-m/crtbegin.o
                0x00000000200006a4                . = ALIGN (0x4)

.bss            0x00000000200006a4     0x370c load address 0x0000000008017aa4
                0x00000000200006a4                _sbss = .
                0x00000000200006a4                __bss_start__ = _sbss
 *(.bss)
 .bss           0x00000000200006a4       0x1c /Users/imac/Develop/stm32f4/arm_gcc/gcc-arm-none-eabi-4_8-2014q2/bin/../lib/gcc/arm-none-eabi/4.8.4/armv7-m/crtbegin.o
 *(.bss*)
 .bss.adcValues
                0x00000000200006c0        0x4 obj/SKYROVER/drv_adc.o
 .bss.useFifo   0x00000000200006c4        0x1 obj/SKYROVER/drv_adxl345.o
 .bss.acc_samples
                0x00000000200006c5        0x1 obj/SKYROVER/drv_adxl345.o
                0x00000000200006c5                acc_samples
 .bss.convDone  0x00000000200006c6        0x1 obj/SKYROVER/drv_bmp085.o
 *fill*         0x00000000200006c7        0x1 
 .bss.convOverrun
                0x00000000200006c8        0x2 obj/SKYROVER/drv_bmp085.o
 *fill*         0x00000000200006ca        0x2 
 .bss.bmp085    0x00000000200006cc       0x24 obj/SKYROVER/drv_bmp085.o
 .bss.bmp085_up
                0x00000000200006f0        0x4 obj/SKYROVER/drv_bmp085.o
 .bss.bmp085InitDone
                0x00000000200006f4        0x1 obj/SKYROVER/drv_bmp085.o
 *fill*         0x00000000200006f5        0x1 
 .bss.bmp085_ut
                0x00000000200006f6        0x2 obj/SKYROVER/drv_bmp085.o
 .bss.ms5611_up
                0x00000000200006f8        0x4 obj/SKYROVER/drv_ms5611.o
 .bss.ms5611_ut
                0x00000000200006fc        0x4 obj/SKYROVER/drv_ms5611.o
 .bss.ms5611_c  0x0000000020000700       0x10 obj/SKYROVER/drv_ms5611.o
 .bss.device_id
                0x0000000020000710        0x1 obj/SKYROVER/drv_mma845x.o
 .bss.mpuAccelHalf
                0x0000000020000711        0x1 obj/SKYROVER/drv_mpu6050.o
 .bss.mpuLowPassFilter
                0x0000000020000712        0x1 obj/SKYROVER/drv_l3g4200d.o
 *fill*         0x0000000020000713        0x1 
 .bss.captures  0x0000000020000714       0x10 obj/SKYROVER/drv_pwm.o
 .bss.last.9177
                0x0000000020000724        0x2 obj/SKYROVER/drv_pwm.o
 *fill*         0x0000000020000726        0x2 
 .bss.pwmPorts  0x0000000020000728       0xe0 obj/SKYROVER/drv_pwm.o
 .bss.numInputs
                0x0000000020000808        0x1 obj/SKYROVER/drv_pwm.o
 .bss.numMotors
                0x0000000020000809        0x1 obj/SKYROVER/drv_pwm.o
 .bss.GoodPulses.9179
                0x000000002000080a        0x1 obj/SKYROVER/drv_pwm.o
 .bss.numServos
                0x000000002000080b        0x1 obj/SKYROVER/drv_pwm.o
 .bss.pwmWritePtr
                0x000000002000080c        0x4 obj/SKYROVER/drv_pwm.o
 .bss.motors    0x0000000020000810       0x30 obj/SKYROVER/drv_pwm.o
 .bss.servos    0x0000000020000840       0x20 obj/SKYROVER/drv_pwm.o
 .bss.now.9176  0x0000000020000860        0x2 obj/SKYROVER/drv_pwm.o
 .bss.chan.9178
                0x0000000020000862        0x1 obj/SKYROVER/drv_pwm.o
 *fill*         0x0000000020000863        0x1 
 .bss.hexairbotChannelData
                0x0000000020000864       0x20 obj/SKYROVER/hexairbot.o
 .bss.hexairbotFrameDone
                0x0000000020000884        0x1 obj/SKYROVER/hexairbot.o
 .bss.icnt.9549
                0x0000000020000885        0x1 obj/SKYROVER/buzzer.o
 .bss.warn_failsafe.9539
                0x0000000020000886        0x1 obj/SKYROVER/buzzer.o
 .bss.buzzerIsOn
                0x0000000020000887        0x1 obj/SKYROVER/buzzer.o
 .bss.warn_noGPSfix.9538
                0x0000000020000888        0x1 obj/SKYROVER/buzzer.o
 .bss.beepDone  0x0000000020000889        0x1 obj/SKYROVER/buzzer.o
 .bss.beeperOnBox.9537
                0x000000002000088a        0x1 obj/SKYROVER/buzzer.o
 *fill*         0x000000002000088b        0x1 
 .bss.buzzerLastToggleTime
                0x000000002000088c        0x4 obj/SKYROVER/buzzer.o
 .bss.cliBuffer
                0x0000000020000890       0x30 obj/SKYROVER/cli.o
 .bss.bufferIndex
                0x00000000200008c0        0x4 obj/SKYROVER/cli.o
 .bss.enabledSensors
                0x00000000200008c4        0x4 obj/SKYROVER/config.o
 .bss.offset.9830
                0x00000000200008c8        0x1 obj/SKYROVER/gps.o
 .bss._msg_id   0x00000000200008c9        0x1 obj/SKYROVER/gps.o
 *fill*         0x00000000200008ca        0x2 
 .bss.poshold_ratePID
                0x00000000200008cc       0x28 obj/SKYROVER/gps.o
 .bss.last.9751
                0x00000000200008f4        0x8 obj/SKYROVER/gps.o
 .bss.rate_error
                0x00000000200008fc        0x4 obj/SKYROVER/gps.o
 .bss.parity.9831
                0x0000000020000900        0x1 obj/SKYROVER/gps.o
 *fill*         0x0000000020000901        0x3 
 .bss.GPS_filter
                0x0000000020000904       0x28 obj/SKYROVER/gps.o
 .bss.crosstrack_error
                0x000000002000092c        0x2 obj/SKYROVER/gps.o
 *fill*         0x000000002000092e        0x2 
 .bss.navPID_PARAM
                0x0000000020000930       0x10 obj/SKYROVER/gps.o
 .bss.posholdPID
                0x0000000020000940       0x28 obj/SKYROVER/gps.o
 .bss._payload_counter
                0x0000000020000968        0x2 obj/SKYROVER/gps.o
 *fill*         0x000000002000096a        0x2 
 .bss.posholdPID_PARAM
                0x000000002000096c       0x10 obj/SKYROVER/gps.o
 .bss.nav_loopTimer.9698
                0x000000002000097c        0x4 obj/SKYROVER/gps.o
 .bss._ck_a     0x0000000020000980        0x1 obj/SKYROVER/gps.o
 .bss._ck_b     0x0000000020000981        0x1 obj/SKYROVER/gps.o
 .bss._new_position
                0x0000000020000982        0x1 obj/SKYROVER/gps.o
 *fill*         0x0000000020000983        0x1 
 .bss._payload_length
                0x0000000020000984        0x2 obj/SKYROVER/gps.o
 .bss.speed_old.9750
                0x0000000020000986        0x4 obj/SKYROVER/gps.o
 *fill*         0x000000002000098a        0x2 
 .bss.nav_bearing
                0x000000002000098c        0x4 obj/SKYROVER/gps.o
 .bss.frame.9834
                0x0000000020000990        0x1 obj/SKYROVER/gps.o
 *fill*         0x0000000020000991        0x3 
 .bss.GPS_WP    0x0000000020000994        0x8 obj/SKYROVER/gps.o
 .bss._new_speed
                0x000000002000099c        0x1 obj/SKYROVER/gps.o
 .bss.string.9832
                0x000000002000099d        0xf obj/SKYROVER/gps.o
 .bss.checksum_param.9833
                0x00000000200009ac        0x1 obj/SKYROVER/gps.o
 *fill*         0x00000000200009ad        0x1 
 .bss.fraction3
                0x00000000200009ae        0x4 obj/SKYROVER/gps.o
 *fill*         0x00000000200009b2        0x2 
 .bss.poshold_ratePID_PARAM
                0x00000000200009b4       0x10 obj/SKYROVER/gps.o
 .bss.dTnav     0x00000000200009c4        0x4 obj/SKYROVER/gps.o
 .bss.GPS_degree
                0x00000000200009c8        0x8 obj/SKYROVER/gps.o
 .bss.param.9829
                0x00000000200009d0        0x1 obj/SKYROVER/gps.o
 *fill*         0x00000000200009d1        0x1 
 .bss.actual_speed
                0x00000000200009d2        0x4 obj/SKYROVER/gps.o
 .bss.nav_takeoff_bearing
                0x00000000200009d6        0x2 obj/SKYROVER/gps.o
 .bss.navPID    0x00000000200009d8       0x28 obj/SKYROVER/gps.o
 .bss.target_bearing
                0x0000000020000a00        0x4 obj/SKYROVER/gps.o
 .bss.GPS_filter_sum
                0x0000000020000a04        0x8 obj/SKYROVER/gps.o
 .bss.wp_distance
                0x0000000020000a0c        0x4 obj/SKYROVER/gps.o
 .bss.original_target_bearing
                0x0000000020000a10        0x4 obj/SKYROVER/gps.o
 .bss._class    0x0000000020000a14        0x1 obj/SKYROVER/gps.o
 .bss.init.9752
                0x0000000020000a15        0x1 obj/SKYROVER/gps.o
 *fill*         0x0000000020000a16        0x2 
 .bss.GPS_read  0x0000000020000a18        0x8 obj/SKYROVER/gps.o
 .bss.next_fix  0x0000000020000a20        0x1 obj/SKYROVER/gps.o
 *fill*         0x0000000020000a21        0x3 
 .bss.GPS_filtered
                0x0000000020000a24        0x8 obj/SKYROVER/gps.o
 .bss._step     0x0000000020000a2c        0x1 obj/SKYROVER/gps.o
 *fill*         0x0000000020000a2d        0x1 
 .bss.waypoint_speed_gov
                0x0000000020000a2e        0x2 obj/SKYROVER/gps.o
 .bss.error     0x0000000020000a30        0x8 obj/SKYROVER/gps.o
 .bss.GPS_filter_index
                0x0000000020000a38        0x1 obj/SKYROVER/gps.o
 *fill*         0x0000000020000a39        0x3 
 .bss._buffer   0x0000000020000a3c       0xc8 obj/SKYROVER/gps.o
 .bss.lastBaroAlt.9660
                0x0000000020000b04        0x4 obj/SKYROVER/imu.o
 .bss.gyroYawSmooth.9558
                0x0000000020000b08        0x2 obj/SKYROVER/imu.o
 *fill*         0x0000000020000b0a        0x2 
 .bss.vel.9658  0x0000000020000b0c        0x4 obj/SKYROVER/imu.o
 .bss.baroGroundAltitude.9661
                0x0000000020000b10        0x4 obj/SKYROVER/imu.o
 .bss.baroTemperature
                0x0000000020000b14        0x4 obj/SKYROVER/imu.o
                0x0000000020000b14                baroTemperature
 .bss.accZ_25deg
                0x0000000020000b18        0x2 obj/SKYROVER/imu.o
                0x0000000020000b18                accZ_25deg
 *fill*         0x0000000020000b1a        0x2 
 .bss.baroGroundPressure.9662
                0x0000000020000b1c        0x4 obj/SKYROVER/imu.o
 .bss.gyroData  0x0000000020000b20        0x6 obj/SKYROVER/imu.o
                0x0000000020000b20                gyroData
 *fill*         0x0000000020000b26        0x2 
 .bss.accAlt.9659
                0x0000000020000b28        0x4 obj/SKYROVER/imu.o
 .bss.angle     0x0000000020000b2c        0x4 obj/SKYROVER/imu.o
                0x0000000020000b2c                angle
 .bss.accZoffset.9602
                0x0000000020000b30        0x4 obj/SKYROVER/imu.o
 .bss.BaroAlt   0x0000000020000b34        0x4 obj/SKYROVER/imu.o
                0x0000000020000b34                BaroAlt
 .bss.throttleAngleCorrection
                0x0000000020000b38        0x2 obj/SKYROVER/imu.o
                0x0000000020000b38                throttleAngleCorrection
 *fill*         0x0000000020000b3a        0x2 
 .bss.previousT.9628
                0x0000000020000b3c        0x4 obj/SKYROVER/imu.o
 .bss.magneticDeclination
                0x0000000020000b40        0x4 obj/SKYROVER/imu.o
                0x0000000020000b40                magneticDeclination
 .bss.baroPressure
                0x0000000020000b44        0x4 obj/SKYROVER/imu.o
                0x0000000020000b44                baroPressure
 .bss.errorAltitudeI
                0x0000000020000b48        0x4 obj/SKYROVER/imu.o
                0x0000000020000b48                errorAltitudeI
 .bss.previousT.9646
                0x0000000020000b4c        0x4 obj/SKYROVER/imu.o
 .bss.accz_smooth.9603
                0x0000000020000b50        0x4 obj/SKYROVER/imu.o
 .bss.accZ_old.9657
                0x0000000020000b54        0x4 obj/SKYROVER/imu.o
 .bss.gyroZero  0x0000000020000b58        0x6 obj/SKYROVER/imu.o
                0x0000000020000b58                gyroZero
 *fill*         0x0000000020000b5e        0x2 
 .bss.accSumCount
                0x0000000020000b60        0x4 obj/SKYROVER/imu.o
                0x0000000020000b60                accSumCount
 .bss.accLPF.9627
                0x0000000020000b64        0xc obj/SKYROVER/imu.o
 .bss.anglerad  0x0000000020000b70        0x8 obj/SKYROVER/imu.o
                0x0000000020000b70                anglerad
 .bss.baroPressureSum
                0x0000000020000b78        0x4 obj/SKYROVER/imu.o
                0x0000000020000b78                baroPressureSum
 .bss.vario     0x0000000020000b7c        0x4 obj/SKYROVER/imu.o
                0x0000000020000b7c                vario
 .bss.EstM.9625
                0x0000000020000b80        0xc obj/SKYROVER/imu.o
 .bss.accTimeSum
                0x0000000020000b8c        0x4 obj/SKYROVER/imu.o
                0x0000000020000b8c                accTimeSum
 .bss.BaroPID   0x0000000020000b90        0x4 obj/SKYROVER/imu.o
                0x0000000020000b90                BaroPID
 .bss.numberMotor
                0x0000000020000b94        0x1 obj/SKYROVER/mixer.o
 *fill*         0x0000000020000b95        0x1 
 .bss.slow_LFlaps.9613
                0x0000000020000b96        0x2 obj/SKYROVER/mixer.o
 .bss.currentMixer
                0x0000000020000b98       0xc0 obj/SKYROVER/mixer.o
 .bss.rcData4Values.9627
                0x0000000020000c58       0x40 obj/SKYROVER/mw.o
 .bss.failsafeCnt
                0x0000000020000c98        0x2 obj/SKYROVER/mw.o
                0x0000000020000c98                failsafeCnt
 *fill*         0x0000000020000c9a        0x2 
 .bss.errorGyroI
                0x0000000020000c9c        0xc obj/SKYROVER/mw.o
 .bss.AccInflightCalibrationMeasurementDone
                0x0000000020000ca8        0x2 obj/SKYROVER/mw.o
                0x0000000020000ca8                AccInflightCalibrationMeasurementDone
 .bss.rc4ValuesIndex.9629
                0x0000000020000caa        0x1 obj/SKYROVER/mw.o
 *fill*         0x0000000020000cab        0x1 
 .bss.GPS_ground_course
                0x0000000020000cac        0x2 obj/SKYROVER/mw.o
                0x0000000020000cac                GPS_ground_course
 .bss.rcDelayCommand.9698
                0x0000000020000cae        0x1 obj/SKYROVER/mw.o
 .bss.GPS_update
                0x0000000020000caf        0x1 obj/SKYROVER/mw.o
                0x0000000020000caf                GPS_update
 .bss.nav_mode  0x0000000020000cb0        0x1 obj/SKYROVER/mw.o
                0x0000000020000cb0                nav_mode
 *fill*         0x0000000020000cb1        0x1 
 .bss.InflightcalibratingA
                0x0000000020000cb2        0x2 obj/SKYROVER/mw.o
                0x0000000020000cb2                InflightcalibratingA
 .bss.rcDataMean.9628
                0x0000000020000cb4       0x10 obj/SKYROVER/mw.o
 .bss.ind.9601  0x0000000020000cc4        0x1 obj/SKYROVER/mw.o
 *fill*         0x0000000020000cc5        0x3 
 .bss.delta2.9664
                0x0000000020000cc8        0xc obj/SKYROVER/mw.o
 .bss.delta1.9663
                0x0000000020000cd4        0xc obj/SKYROVER/mw.o
 .bss.previousTime
                0x0000000020000ce0        0x4 obj/SKYROVER/mw.o
                0x0000000020000ce0                previousTime
 .bss.errorAngleI
                0x0000000020000ce4        0x8 obj/SKYROVER/mw.o
 .bss.rcSticks.9699
                0x0000000020000cec        0x1 obj/SKYROVER/mw.o
 .bss.buzzerFreq.9599
                0x0000000020000ced        0x1 obj/SKYROVER/mw.o
 *fill*         0x0000000020000cee        0x2 
 .bss.delta2.9678
                0x0000000020000cf0        0xc obj/SKYROVER/mw.o
 .bss.calibratedAccTime.9593
                0x0000000020000cfc        0x4 obj/SKYROVER/mw.o
 .bss.AccInflightCalibrationSavetoEEProm
                0x0000000020000d00        0x2 obj/SKYROVER/mw.o
                0x0000000020000d00                AccInflightCalibrationSavetoEEProm
 .bss.failsafeEvents
                0x0000000020000d02        0x2 obj/SKYROVER/mw.o
                0x0000000020000d02                failsafeEvents
 .bss.loopTime.9704
                0x0000000020000d04        0x4 obj/SKYROVER/mw.o
 .bss.toggleBeep
                0x0000000020000d08        0x1 obj/SKYROVER/mw.o
                0x0000000020000d08                toggleBeep
 *fill*         0x0000000020000d09        0x3 
 .bss.rcReadRawFunc
                0x0000000020000d0c        0x4 obj/SKYROVER/mw.o
                0x0000000020000d0c                rcReadRawFunc
 .bss.lastGyro.9662
                0x0000000020000d10        0x6 obj/SKYROVER/mw.o
 .bss.initialThrottleHold.9703
                0x0000000020000d16        0x2 obj/SKYROVER/mw.o
 .bss.vbatRawArray.9603
                0x0000000020000d18       0x10 obj/SKYROVER/mw.o
 .bss.GPSLEDTime.9615
                0x0000000020000d28        0x4 obj/SKYROVER/mw.o
 .bss.GPS_angle
                0x0000000020000d2c        0x4 obj/SKYROVER/mw.o
                0x0000000020000d2c                GPS_angle
 .bss.cycleTime
                0x0000000020000d30        0x2 obj/SKYROVER/mw.o
                0x0000000020000d30                cycleTime
 .bss.AccInflightCalibrationActive
                0x0000000020000d32        0x2 obj/SKYROVER/mw.o
                0x0000000020000d32                AccInflightCalibrationActive
 .bss.lastError.9682
                0x0000000020000d34        0xc obj/SKYROVER/mw.o
 .bss.rcTime.9702
                0x0000000020000d40        0x4 obj/SKYROVER/mw.o
 .bss.AltHoldCorr.9737
                0x0000000020000d44        0x2 obj/SKYROVER/mw.o
 .bss.vbatTimer.9600
                0x0000000020000d46        0x1 obj/SKYROVER/mw.o
 *fill*         0x0000000020000d47        0x1 
 .bss.taskOrder.9728
                0x0000000020000d48        0x4 obj/SKYROVER/mw.o
 .bss.isAltHoldChanged.9736
                0x0000000020000d4c        0x1 obj/SKYROVER/mw.o
 *fill*         0x0000000020000d4d        0x3 
 .bss.currentTime
                0x0000000020000d50        0x4 obj/SKYROVER/mw.o
                0x0000000020000d50                currentTime
 .bss.delta1.9677
                0x0000000020000d54        0xc obj/SKYROVER/mw.o
 .bss.g.9623    0x0000000020000d60        0xc obj/SKYROVER/sensors.o
 .bss.calibratingG
                0x0000000020000d6c        0x2 obj/SKYROVER/sensors.o
                0x0000000020000d6c                calibratingG
 .bss.accZero_saved.9580
                0x0000000020000d6e        0x6 obj/SKYROVER/sensors.o
 .bss.calibratingA
                0x0000000020000d74        0x2 obj/SKYROVER/sensors.o
                0x0000000020000d74                calibratingA
 .bss.angleTrim_saved.9581
                0x0000000020000d76        0x4 obj/SKYROVER/sensors.o
 *fill*         0x0000000020000d7a        0x2 
 .bss.baroDeadline.9597
                0x0000000020000d7c        0x4 obj/SKYROVER/sensors.o
 .bss.var.9624  0x0000000020000d80       0x3c obj/SKYROVER/sensors.o
 .bss.state.9598
                0x0000000020000dbc        0x4 obj/SKYROVER/sensors.o
 .bss.calibratingB
                0x0000000020000dc0        0x2 obj/SKYROVER/sensors.o
                0x0000000020000dc0                calibratingB
 *fill*         0x0000000020000dc2        0x2 
 .bss.tCal.9644
                0x0000000020000dc4        0x4 obj/SKYROVER/sensors.o
 .bss.baroHistIdx.9592
                0x0000000020000dc8        0x4 obj/SKYROVER/sensors.o
 .bss.t.9643    0x0000000020000dcc        0x4 obj/SKYROVER/sensors.o
 .bss.accHardware
                0x0000000020000dd0        0x1 obj/SKYROVER/sensors.o
                0x0000000020000dd0                accHardware
 *fill*         0x0000000020000dd1        0x3 
 .bss.baroHistTab.9591
                0x0000000020000dd4       0xc0 obj/SKYROVER/sensors.o
 .bss.magZeroTempMin.9645
                0x0000000020000e94        0x6 obj/SKYROVER/sensors.o
 *fill*         0x0000000020000e9a        0x2 
 .bss.b.9579    0x0000000020000e9c        0xc obj/SKYROVER/sensors.o
 .bss.a.9574    0x0000000020000ea8        0xc obj/SKYROVER/sensors.o
 .bss.magInit   0x0000000020000eb4        0x1 obj/SKYROVER/sensors.o
 *fill*         0x0000000020000eb5        0x1 
 .bss.magZeroTempMax.9646
                0x0000000020000eb6        0x6 obj/SKYROVER/sensors.o
 .bss.checksum  0x0000000020000ebc        0x1 obj/SKYROVER/serial.o
 .bss.indRX     0x0000000020000ebd        0x1 obj/SKYROVER/serial.o
 .bss.c_state.9759
                0x0000000020000ebe        0x1 obj/SKYROVER/serial.o
 .bss.numberBoxItems
                0x0000000020000ebf        0x1 obj/SKYROVER/serial.o
 .bss.offset.9750
                0x0000000020000ec0        0x1 obj/SKYROVER/serial.o
 .bss.dataSize.9751
                0x0000000020000ec1        0x1 obj/SKYROVER/serial.o
 .bss.t.9545    0x0000000020000ec2        0x1 obj/SKYROVER/serial.o
 .bss.cmdMSP    0x0000000020000ec3        0x1 obj/SKYROVER/serial.o
 .bss.availableBoxes
                0x0000000020000ec4       0x15 obj/SKYROVER/serial.o
 .bss.t.9541    0x0000000020000ed9        0x1 obj/SKYROVER/serial.o
 .bss.inBuf     0x0000000020000eda       0x40 obj/SKYROVER/serial.o
 .bss.cliMode   0x0000000020000f1a        0x1 obj/SKYROVER/serial.o
                0x0000000020000f1a                cliMode
 .bss.sbusFramePosition.9562
                0x0000000020000f1b        0x1 obj/SKYROVER/sbus.o
 .bss.sbusFrameDone
                0x0000000020000f1c        0x1 obj/SKYROVER/sbus.o
 *fill*         0x0000000020000f1d        0x3 
 .bss.sbusChannelData
                0x0000000020000f20       0x20 obj/SKYROVER/sbus.o
 .bss.sbus      0x0000000020000f40       0x19 obj/SKYROVER/sbus.o
 *fill*         0x0000000020000f59        0x3 
 .bss.sbusTimeLast.9561
                0x0000000020000f5c        0x4 obj/SKYROVER/sbus.o
 .bss.sumd      0x0000000020000f60       0x15 obj/SKYROVER/sumd.o
 .bss.sumdFrameDone
                0x0000000020000f75        0x1 obj/SKYROVER/sumd.o
 .bss.sumdIndex.9540
                0x0000000020000f76        0x1 obj/SKYROVER/sumd.o
 .bss.sumdSize  0x0000000020000f77        0x1 obj/SKYROVER/sumd.o
 .bss.sumdChannelData
                0x0000000020000f78       0x20 obj/SKYROVER/sumd.o
 .bss.sumdTimeLast.9539
                0x0000000020000f98        0x4 obj/SKYROVER/sumd.o
 .bss.spek_chan_shift
                0x0000000020000f9c        0x1 obj/SKYROVER/spektrum.o
 *fill*         0x0000000020000f9d        0x3 
 .bss.spekTimeInterval.9546
                0x0000000020000fa0        0x4 obj/SKYROVER/spektrum.o
 .bss.spekFramePosition.9547
                0x0000000020000fa4        0x1 obj/SKYROVER/spektrum.o
 .bss.rcFrameComplete
                0x0000000020000fa5        0x1 obj/SKYROVER/spektrum.o
 *fill*         0x0000000020000fa6        0x2 
 .bss.spekChannelData.9555
                0x0000000020000fa8       0x1c obj/SKYROVER/spektrum.o
 .bss.spekDataIncoming
                0x0000000020000fc4        0x1 obj/SKYROVER/spektrum.o
 .bss.spekHiRes
                0x0000000020000fc5        0x1 obj/SKYROVER/spektrum.o
 .bss.spek_chan_mask
                0x0000000020000fc6        0x1 obj/SKYROVER/spektrum.o
 *fill*         0x0000000020000fc7        0x1 
 .bss.spekTimeLast.9545
                0x0000000020000fc8        0x4 obj/SKYROVER/spektrum.o
 .bss.cycleNum  0x0000000020000fcc        0x1 obj/SKYROVER/telemetry.o
 .bss.telemetryEnabled
                0x0000000020000fcd        0x1 obj/SKYROVER/telemetry.o
 *fill*         0x0000000020000fce        0x2 
 .bss.lastCycleTime
                0x0000000020000fd0        0x4 obj/SKYROVER/telemetry.o
 .bss.currentCell.9565
                0x0000000020000fd4        0x2 obj/SKYROVER/telemetry.o
 .bss.i2cErrorCount
                0x0000000020000fd6        0x2 obj/SKYROVER/drv_i2c.o
 .bss.writing   0x0000000020000fd8        0x1 obj/SKYROVER/drv_i2c.o
 .bss.final_stop.9171
                0x0000000020000fd9        0x1 obj/SKYROVER/drv_i2c.o
 .bss.reg       0x0000000020000fda        0x1 obj/SKYROVER/drv_i2c.o
 .bss.bytes     0x0000000020000fdb        0x1 obj/SKYROVER/drv_i2c.o
 .bss.subaddress_sent.9170
                0x0000000020000fdc        0x1 obj/SKYROVER/drv_i2c.o
 *fill*         0x0000000020000fdd        0x3 
 .bss.read_p    0x0000000020000fe0        0x4 obj/SKYROVER/drv_i2c.o
 .bss.error     0x0000000020000fe4        0x1 obj/SKYROVER/drv_i2c.o
 *fill*         0x0000000020000fe5        0x3 
 .bss.write_p   0x0000000020000fe8        0x4 obj/SKYROVER/drv_i2c.o
 .bss.index.9172
                0x0000000020000fec        0x1 obj/SKYROVER/drv_i2c.o
 .bss.reading   0x0000000020000fed        0x1 obj/SKYROVER/drv_i2c.o
 *fill*         0x0000000020000fee        0x2 
 .bss.I2Cx      0x0000000020000ff0        0x4 obj/SKYROVER/drv_i2c.o
 .bss.busy      0x0000000020000ff4        0x1 obj/SKYROVER/drv_i2c.o
 .bss.addr      0x0000000020000ff5        0x1 obj/SKYROVER/drv_i2c.o
 *fill*         0x0000000020000ff6        0x2 
 .bss.sysTickUptime
                0x0000000020000ff8        0x4 obj/SKYROVER/drv_system.o
                0x0000000020000ff8                sysTickUptime
 .bss.usTicks   0x0000000020000ffc        0x4 obj/SKYROVER/drv_system.o
 .bss.tx1Buffer.9105
                0x0000000020001000      0x100 obj/SKYROVER/drv_uart.o
 .bss.rx2Buffer.9113
                0x0000000020001100       0x80 obj/SKYROVER/drv_uart.o
 .bss.rx1Buffer.9104
                0x0000000020001180      0x100 obj/SKYROVER/drv_uart.o
 .bss.tx2Buffer.9114
                0x0000000020001280       0x40 obj/SKYROVER/drv_uart.o
 .bss.uartPort1
                0x00000000200012c0       0x4c obj/SKYROVER/drv_uart.o
 .bss.uartPort2
                0x000000002000130c       0x4c obj/SKYROVER/drv_uart.o
 .bss.stdout_putf
                0x0000000020001358        0x4 obj/SKYROVER/printf.o
 .bss.stdout_putp
                0x000000002000135c        0x4 obj/SKYROVER/printf.o
 .bss.boardRotation
                0x0000000020001360       0x24 obj/SKYROVER/utils.o
 .bss.xSuspendedTaskList
                0x0000000020001384       0x14 obj/SKYROVER/tasks.o
 .bss.pxDelayedTaskList
                0x0000000020001398        0x4 obj/SKYROVER/tasks.o
 .bss.xSchedulerRunning
                0x000000002000139c        0x4 obj/SKYROVER/tasks.o
 .bss.uxTasksDeleted
                0x00000000200013a0        0x4 obj/SKYROVER/tasks.o
 .bss.xTasksWaitingTermination
                0x00000000200013a4       0x14 obj/SKYROVER/tasks.o
 .bss.xDelayedTaskList2
                0x00000000200013b8       0x14 obj/SKYROVER/tasks.o
 .bss.uxPendedTicks
                0x00000000200013cc        0x4 obj/SKYROVER/tasks.o
 .bss.pxReadyTasksLists
                0x00000000200013d0       0xa0 obj/SKYROVER/tasks.o
 .bss.uxSchedulerSuspended
                0x0000000020001470        0x4 obj/SKYROVER/tasks.o
 .bss.xNumOfOverflows
                0x0000000020001474        0x4 obj/SKYROVER/tasks.o
 .bss.pxCurrentTCB
                0x0000000020001478        0x4 obj/SKYROVER/tasks.o
                0x0000000020001478                pxCurrentTCB
 .bss.xPendingReadyList
                0x000000002000147c       0x14 obj/SKYROVER/tasks.o
 .bss.xTickCount
                0x0000000020001490        0x4 obj/SKYROVER/tasks.o
 .bss.pxOverflowDelayedTaskList
                0x0000000020001494        0x4 obj/SKYROVER/tasks.o
 .bss.uxTaskNumber
                0x0000000020001498        0x4 obj/SKYROVER/tasks.o
 .bss.xDelayedTaskList1
                0x000000002000149c       0x14 obj/SKYROVER/tasks.o
 .bss.uxCurrentNumberOfTasks
                0x00000000200014b0        0x4 obj/SKYROVER/tasks.o
 .bss.uxTopReadyPriority
                0x00000000200014b4        0x4 obj/SKYROVER/tasks.o
 .bss.xYieldPending
                0x00000000200014b8        0x4 obj/SKYROVER/tasks.o
 .bss.pxCurrentTimerList
                0x00000000200014bc        0x4 obj/SKYROVER/timers.o
 .bss.xActiveTimerList1
                0x00000000200014c0       0x14 obj/SKYROVER/timers.o
 .bss.xActiveTimerList2
                0x00000000200014d4       0x14 obj/SKYROVER/timers.o
 .bss.xLastTime.5098
                0x00000000200014e8        0x4 obj/SKYROVER/timers.o
 .bss.xTimerQueue
                0x00000000200014ec        0x4 obj/SKYROVER/timers.o
 .bss.pxOverflowTimerList
                0x00000000200014f0        0x4 obj/SKYROVER/timers.o
 .bss.xStart    0x00000000200014f4        0x8 obj/SKYROVER/heap_2.o
 .bss.xHeapHasBeenInitialised.4891
                0x00000000200014fc        0x4 obj/SKYROVER/heap_2.o
 .bss.ucHeap    0x0000000020001500     0x1000 obj/SKYROVER/heap_2.o
 .bss.xEnd      0x0000000020002500        0x8 obj/SKYROVER/heap_2.o
 .bss.ucMaxSysCallPriority
                0x0000000020002508        0x1 obj/SKYROVER/port.o
 *fill*         0x0000000020002509        0x3 
 .bss.ulMaxPRIGROUPValue
                0x000000002000250c        0x4 obj/SKYROVER/port.o
 .bss.Data_Mul_MaxPacketSize
                0x0000000020002510        0x1 obj/SKYROVER/usb_core.o
                0x0000000020002510                Data_Mul_MaxPacketSize
 .bss.USB_Tx_State
                0x0000000020002511        0x1 obj/SKYROVER/hw_config.o
                0x0000000020002511                USB_Tx_State
 *fill*         0x0000000020002512        0x2 
 .bss.USART_Rx_ptr_in
                0x0000000020002514        0x4 obj/SKYROVER/hw_config.o
                0x0000000020002514                USART_Rx_ptr_in
 .bss.USART_Rx_ptr_out
                0x0000000020002518        0x4 obj/SKYROVER/hw_config.o
                0x0000000020002518                USART_Rx_ptr_out
 .bss.USART_Rx_length
                0x000000002000251c        0x4 obj/SKYROVER/hw_config.o
                0x000000002000251c                USART_Rx_length
 .bss.FrameCount.9560
                0x0000000020002520        0x4 obj/SKYROVER/usb_endp.o
 .bss.bIntPackSOF
                0x0000000020002524        0x1 obj/SKYROVER/usb_istr.o
                0x0000000020002524                bIntPackSOF
 .bss.Request   0x0000000020002525        0x1 obj/SKYROVER/usb_prop.o
                0x0000000020002525                Request
 *fill*         0x0000000020002526        0x2 
 .bss.bDeviceState
                0x0000000020002528        0x4 obj/SKYROVER/usb_pwr.o
                0x0000000020002528                bDeviceState
 *(COMMON)
 COMMON         0x000000002000252c      0x100 obj/SKYROVER/drv_timer.o
                0x000000002000252c                timerConfig
 COMMON         0x000000002000262c      0x440 obj/SKYROVER/config.o
                0x000000002000262c                cfg
                0x00000000200026f0                mcfg
 COMMON         0x0000000020002a6c       0x1f obj/SKYROVER/gps.o
                0x0000000020002a6c                ubs_protocol_bytes
                0x0000000020002a6d                ubx_nav_status_bits
                0x0000000020002a6e                xLeadFilter
                0x0000000020002a70                gpsData
                0x0000000020002a88                yLeadFilter
                0x0000000020002a8a                ubs_nav_fix_type
 *fill*         0x0000000020002a8b        0x1 
 COMMON         0x0000000020002a8c       0x48 obj/SKYROVER/imu.o
                0x0000000020002a8c                sonarAlt
                0x0000000020002a90                gyroADC
                0x0000000020002a98                accSum
                0x0000000020002aa4                accVelScale
                0x0000000020002aa8                accADC
                0x0000000020002ab0                EstAlt
                0x0000000020002ab4                magADC
                0x0000000020002abc                AltHold
                0x0000000020002ac0                accSmooth
                0x0000000020002ac8                EstG
 COMMON         0x0000000020002ad4       0x1c obj/SKYROVER/main.o
                0x0000000020002ad4                Thread_Serial_Handle
                0x0000000020002ad8                core
                0x0000000020002aec                Thread_Loop_Handle
 COMMON         0x0000000020002af0       0x30 obj/SKYROVER/mixer.o
                0x0000000020002af0                motor
                0x0000000020002b08                motor_disarmed
 COMMON         0x0000000020002b20      0x108 obj/SKYROVER/mw.o
                0x0000000020002b20                GPS_svinfo_chn
                0x0000000020002b30                telemTemperature1
                0x0000000020002b32                f
                0x0000000020002b44                GPS_altitude
                0x0000000020002b46                nav_rated
                0x0000000020002b4a                lookupThrottleRC
                0x0000000020002b62                nav
                0x0000000020002b66                GPS_speed
                0x0000000020002b68                GPS_hold
                0x0000000020002b70                debug
                0x0000000020002b78                rcCommand
                0x0000000020002b80                vbat
                0x0000000020002b82                batteryWarningVoltage
                0x0000000020002b84                axisPID
                0x0000000020002b8a                GPS_distanceToHome
                0x0000000020002b8c                GPS_home
                0x0000000020002b94                GPS_directionToHome
                0x0000000020002b96                rcOptions
                0x0000000020002bab                GPS_svinfo_svid
                0x0000000020002bbc                GPS_coord
                0x0000000020002bc4                GPS_svinfo_quality
                0x0000000020002bd4                dynI8
                0x0000000020002bd8                rssi
                0x0000000020002bda                GPS_numSat
                0x0000000020002bdb                GPS_numCh
                0x0000000020002bdc                headFreeModeHold
                0x0000000020002bde                rcData
                0x0000000020002c02                dynD8
                0x0000000020002c05                dynP8
                0x0000000020002c08                GPS_svinfo_cno
                0x0000000020002c18                AccInflightCalibrationArmed
                0x0000000020002c1a                lookupPitchRollRC
 COMMON         0x0000000020002c28       0x3e obj/SKYROVER/sensors.o
                0x0000000020002c28                acc
                0x0000000020002c38                magHold
                0x0000000020002c3c                gyro
                0x0000000020002c4c                baro
                0x0000000020002c64                heading
 COMMON         0x0000000020002c66       0x10 obj/SKYROVER/spektrum.o
                0x0000000020002c66                spekFrame
 *fill*         0x0000000020002c76        0x2 
 COMMON         0x0000000020002c78      0x490 obj/SKYROVER/drv_softserial.o
                0x0000000020002c78                softSerialPorts
 COMMON         0x0000000020003108        0x4 obj/SKYROVER/drv_vcom.o
                0x0000000020003108                Hw_VCom_RxdFuncPtr
 COMMON         0x000000002000310c      0x408 obj/SKYROVER/drv_vcom_q.o
                0x000000002000310c                Hw_VCom_Q_Buffer
                0x000000002000350e                Hw_VCom_Q_End
                0x0000000020003510                Hw_VCom_Q_Start
                0x0000000020003512                Hw_VCom_Q_Size
 COMMON         0x0000000020003514        0x2 obj/SKYROVER/usb_core.o
                0x0000000020003514                StatusInfo
 *fill*         0x0000000020003516        0x2 
 COMMON         0x0000000020003518       0x32 obj/SKYROVER/usb_init.o
                0x0000000020003518                SaveState
                0x000000002000351c                pProperty
                0x0000000020003520                EPindex
                0x0000000020003524                Device_Info
                0x0000000020003540                pUser_Standard_Requests
                0x0000000020003544                pInformation
                0x0000000020003548                wInterrupt_Mask
 COMMON         0x000000002000354a        0x4 obj/SKYROVER/usb_int.o
                0x000000002000354a                SaveRState
                0x000000002000354c                SaveTState
 *fill*         0x000000002000354e        0x2 
 COMMON         0x0000000020003550      0x81c obj/SKYROVER/hw_config.o
                0x0000000020003550                HSEStartUpStatus
                0x0000000020003551                USART_Rx_Buffer
                0x0000000020003d54                USART_InitStructure
                0x0000000020003d64                EXTI_InitStructure
 COMMON         0x0000000020003d6c       0x40 obj/SKYROVER/usb_endp.o
                0x0000000020003d6c                USB_Rx_Buffer
 COMMON         0x0000000020003dac        0x2 obj/SKYROVER/usb_istr.o
                0x0000000020003dac                wIstr
                0x0000000020003db0                . = ALIGN (0x4)
 *fill*         0x0000000020003dae        0x2 
                0x0000000020003db0                _ebss = .
                0x0000000020003db0                __bss_end__ = _ebss

._user_heap_stack
                0x0000000020003db0      0x400 load address 0x0000000008017aa4
                0x0000000020003db0                . = ALIGN (0x4)
                0x0000000020003db0                PROVIDE (end, .)
                0x0000000020003db0                PROVIDE (_end, .)
                0x0000000020003db0                . = (. + _Min_Heap_Size)
                0x00000000200041b0                . = (. + _Min_Stack_Size)
 *fill*         0x0000000020003db0      0x400 
                0x00000000200041b0                . = ALIGN (0x4)

.memory_b1_text
 *(.mb1text)
 *(.mb1text*)
 *(.mb1rodata)
 *(.mb1rodata*)

/DISCARD/
 libc.a(*)
 libm.a(*)
 libgcc.a(*)

.ARM.attributes
                0x0000000000000000       0x29
 *(.ARM.attributes)
 .ARM.attributes
                0x0000000000000000       0x1d /Users/imac/Develop/stm32f4/arm_gcc/gcc-arm-none-eabi-4_8-2014q2/bin/../lib/gcc/arm-none-eabi/4.8.4/armv7-m/crti.o
 .ARM.attributes
                0x000000000000001d       0x2d /Users/imac/Develop/stm32f4/arm_gcc/gcc-arm-none-eabi-4_8-2014q2/bin/../lib/gcc/arm-none-eabi/4.8.4/armv7-m/crtbegin.o
 .ARM.attributes
                0x000000000000004a       0x33 obj/SKYROVER/drv_adc.o
 .ARM.attributes
                0x000000000000007d       0x33 obj/SKYROVER/drv_adxl345.o
 .ARM.attributes
                0x00000000000000b0       0x33 obj/SKYROVER/drv_bma280.o
 .ARM.attributes
                0x00000000000000e3       0x33 obj/SKYROVER/drv_bmp085.o
 .ARM.attributes
                0x0000000000000116       0x33 obj/SKYROVER/drv_ms5611.o
 .ARM.attributes
                0x0000000000000149       0x33 obj/SKYROVER/drv_hmc5883l.o
 .ARM.attributes
                0x000000000000017c       0x33 obj/SKYROVER/drv_mma845x.o
 .ARM.attributes
                0x00000000000001af       0x33 obj/SKYROVER/drv_mpu3050.o
 .ARM.attributes
                0x00000000000001e2       0x33 obj/SKYROVER/drv_mpu6050.o
 .ARM.attributes
                0x0000000000000215       0x33 obj/SKYROVER/drv_l3g4200d.o
 .ARM.attributes
                0x0000000000000248       0x33 obj/SKYROVER/drv_pwm.o
 .ARM.attributes
                0x000000000000027b       0x33 obj/SKYROVER/drv_spi.o
 .ARM.attributes
                0x00000000000002ae       0x33 obj/SKYROVER/drv_timer.o
 .ARM.attributes
                0x00000000000002e1       0x33 obj/SKYROVER/hexairbot.o
 .ARM.attributes
                0x0000000000000314       0x21 obj/SKYROVER/startup_stm32f10x_md_gcc.o
 .ARM.attributes
                0x0000000000000335       0x33 obj/SKYROVER/buzzer.o
 .ARM.attributes
                0x0000000000000368       0x33 obj/SKYROVER/cli.o
 .ARM.attributes
                0x000000000000039b       0x33 obj/SKYROVER/config.o
 .ARM.attributes
                0x00000000000003ce       0x33 obj/SKYROVER/gps.o
 .ARM.attributes
                0x0000000000000401       0x33 obj/SKYROVER/imu.o
 .ARM.attributes
                0x0000000000000434       0x33 obj/SKYROVER/main.o
 .ARM.attributes
                0x0000000000000467       0x33 obj/SKYROVER/mixer.o
 .ARM.attributes
                0x000000000000049a       0x33 obj/SKYROVER/mw.o
 .ARM.attributes
                0x00000000000004cd       0x33 obj/SKYROVER/sensors.o
 .ARM.attributes
                0x0000000000000500       0x33 obj/SKYROVER/serial.o
 .ARM.attributes
                0x0000000000000533       0x33 obj/SKYROVER/sbus.o
 .ARM.attributes
                0x0000000000000566       0x33 obj/SKYROVER/sumd.o
 .ARM.attributes
                0x0000000000000599       0x33 obj/SKYROVER/spektrum.o
 .ARM.attributes
                0x00000000000005cc       0x33 obj/SKYROVER/telemetry.o
 .ARM.attributes
                0x00000000000005ff       0x33 obj/SKYROVER/drv_gpio.o
 .ARM.attributes
                0x0000000000000632       0x33 obj/SKYROVER/drv_i2c.o
 .ARM.attributes
                0x0000000000000665       0x33 obj/SKYROVER/drv_system.o
 .ARM.attributes
                0x0000000000000698       0x33 obj/SKYROVER/drv_serial.o
 .ARM.attributes
                0x00000000000006cb       0x33 obj/SKYROVER/drv_softserial.o
 .ARM.attributes
                0x00000000000006fe       0x33 obj/SKYROVER/drv_uart.o
 .ARM.attributes
                0x0000000000000731       0x33 obj/SKYROVER/drv_vcom.o
 .ARM.attributes
                0x0000000000000764       0x33 obj/SKYROVER/drv_vcom_q.o
 .ARM.attributes
                0x0000000000000797       0x33 obj/SKYROVER/printf.o
 .ARM.attributes
                0x00000000000007ca       0x33 obj/SKYROVER/utils.o
 .ARM.attributes
                0x00000000000007fd       0x33 obj/SKYROVER/system_stm32f10x.o
 .ARM.attributes
                0x0000000000000830       0x33 obj/SKYROVER/misc.o
 .ARM.attributes
                0x0000000000000863       0x33 obj/SKYROVER/stm32f10x_adc.o
 .ARM.attributes
                0x0000000000000896       0x33 obj/SKYROVER/stm32f10x_dma.o
 .ARM.attributes
                0x00000000000008c9       0x33 obj/SKYROVER/stm32f10x_exti.o
 .ARM.attributes
                0x00000000000008fc       0x33 obj/SKYROVER/stm32f10x_flash.o
 .ARM.attributes
                0x000000000000092f       0x33 obj/SKYROVER/stm32f10x_gpio.o
 .ARM.attributes
                0x0000000000000962       0x33 obj/SKYROVER/stm32f10x_i2c.o
 .ARM.attributes
                0x0000000000000995       0x33 obj/SKYROVER/stm32f10x_rcc.o
 .ARM.attributes
                0x00000000000009c8       0x33 obj/SKYROVER/stm32f10x_spi.o
 .ARM.attributes
                0x00000000000009fb       0x33 obj/SKYROVER/stm32f10x_tim.o
 .ARM.attributes
                0x0000000000000a2e       0x33 obj/SKYROVER/stm32f10x_usart.o
 .ARM.attributes
                0x0000000000000a61       0x33 obj/SKYROVER/list.o
 .ARM.attributes
                0x0000000000000a94       0x33 obj/SKYROVER/queue.o
 .ARM.attributes
                0x0000000000000ac7       0x33 obj/SKYROVER/tasks.o
 .ARM.attributes
                0x0000000000000afa       0x33 obj/SKYROVER/timers.o
 .ARM.attributes
                0x0000000000000b2d       0x33 obj/SKYROVER/cmsis_os.o
 .ARM.attributes
                0x0000000000000b60       0x33 obj/SKYROVER/heap_2.o
 .ARM.attributes
                0x0000000000000b93       0x33 obj/SKYROVER/port.o
 .ARM.attributes
                0x0000000000000bc6       0x33 obj/SKYROVER/usb_core.o
 .ARM.attributes
                0x0000000000000bf9       0x33 obj/SKYROVER/usb_init.o
 .ARM.attributes
                0x0000000000000c2c       0x33 obj/SKYROVER/usb_int.o
 .ARM.attributes
                0x0000000000000c5f       0x33 obj/SKYROVER/usb_mem.o
 .ARM.attributes
                0x0000000000000c92       0x33 obj/SKYROVER/usb_regs.o
 .ARM.attributes
                0x0000000000000cc5       0x33 obj/SKYROVER/usb_sil.o
 .ARM.attributes
                0x0000000000000cf8       0x33 obj/SKYROVER/hw_config.o
 .ARM.attributes
                0x0000000000000d2b       0x33 obj/SKYROVER/usb_desc.o
 .ARM.attributes
                0x0000000000000d5e       0x33 obj/SKYROVER/usb_endp.o
 .ARM.attributes
                0x0000000000000d91       0x33 obj/SKYROVER/usb_istr.o
 .ARM.attributes
                0x0000000000000dc4       0x33 obj/SKYROVER/usb_prop.o
 .ARM.attributes
                0x0000000000000df7       0x33 obj/SKYROVER/usb_pwr.o
 .ARM.attributes
                0x0000000000000e2a       0x2d /Users/imac/Develop/stm32f4/arm_gcc/gcc-arm-none-eabi-4_8-2014q2/bin/../lib/gcc/arm-none-eabi/4.8.4/../../../../arm-none-eabi/lib/armv7-m/libm.a(lib_a-sf_cos.o)
 .ARM.attributes
                0x0000000000000e57       0x2d /Users/imac/Develop/stm32f4/arm_gcc/gcc-arm-none-eabi-4_8-2014q2/bin/../lib/gcc/arm-none-eabi/4.8.4/../../../../arm-none-eabi/lib/armv7-m/libm.a(lib_a-sf_lrint.o)
 .ARM.attributes
                0x0000000000000e84       0x2d /Users/imac/Develop/stm32f4/arm_gcc/gcc-arm-none-eabi-4_8-2014q2/bin/../lib/gcc/arm-none-eabi/4.8.4/../../../../arm-none-eabi/lib/armv7-m/libm.a(lib_a-sf_sin.o)
 .ARM.attributes
                0x0000000000000eb1       0x2d /Users/imac/Develop/stm32f4/arm_gcc/gcc-arm-none-eabi-4_8-2014q2/bin/../lib/gcc/arm-none-eabi/4.8.4/../../../../arm-none-eabi/lib/armv7-m/libm.a(lib_a-wf_atan2.o)
 .ARM.attributes
                0x0000000000000ede       0x2d /Users/imac/Develop/stm32f4/arm_gcc/gcc-arm-none-eabi-4_8-2014q2/bin/../lib/gcc/arm-none-eabi/4.8.4/../../../../arm-none-eabi/lib/armv7-m/libm.a(lib_a-wf_pow.o)
 .ARM.attributes
                0x0000000000000f0b       0x2d /Users/imac/Develop/stm32f4/arm_gcc/gcc-arm-none-eabi-4_8-2014q2/bin/../lib/gcc/arm-none-eabi/4.8.4/../../../../arm-none-eabi/lib/armv7-m/libm.a(lib_a-wf_sqrt.o)
 .ARM.attributes
                0x0000000000000f38       0x2d /Users/imac/Develop/stm32f4/arm_gcc/gcc-arm-none-eabi-4_8-2014q2/bin/../lib/gcc/arm-none-eabi/4.8.4/../../../../arm-none-eabi/lib/armv7-m/libm.a(lib_a-ef_atan2.o)
 .ARM.attributes
                0x0000000000000f65       0x2d /Users/imac/Develop/stm32f4/arm_gcc/gcc-arm-none-eabi-4_8-2014q2/bin/../lib/gcc/arm-none-eabi/4.8.4/../../../../arm-none-eabi/lib/armv7-m/libm.a(lib_a-ef_pow.o)
 .ARM.attributes
                0x0000000000000f92       0x2d /Users/imac/Develop/stm32f4/arm_gcc/gcc-arm-none-eabi-4_8-2014q2/bin/../lib/gcc/arm-none-eabi/4.8.4/../../../../arm-none-eabi/lib/armv7-m/libm.a(lib_a-ef_rem_pio2.o)
 .ARM.attributes
                0x0000000000000fbf       0x2d /Users/imac/Develop/stm32f4/arm_gcc/gcc-arm-none-eabi-4_8-2014q2/bin/../lib/gcc/arm-none-eabi/4.8.4/../../../../arm-none-eabi/lib/armv7-m/libm.a(lib_a-ef_sqrt.o)
 .ARM.attributes
                0x0000000000000fec       0x2d /Users/imac/Develop/stm32f4/arm_gcc/gcc-arm-none-eabi-4_8-2014q2/bin/../lib/gcc/arm-none-eabi/4.8.4/../../../../arm-none-eabi/lib/armv7-m/libm.a(lib_a-kf_cos.o)
 .ARM.attributes
                0x0000000000001019       0x2d /Users/imac/Develop/stm32f4/arm_gcc/gcc-arm-none-eabi-4_8-2014q2/bin/../lib/gcc/arm-none-eabi/4.8.4/../../../../arm-none-eabi/lib/armv7-m/libm.a(lib_a-kf_rem_pio2.o)
 .ARM.attributes
                0x0000000000001046       0x2d /Users/imac/Develop/stm32f4/arm_gcc/gcc-arm-none-eabi-4_8-2014q2/bin/../lib/gcc/arm-none-eabi/4.8.4/../../../../arm-none-eabi/lib/armv7-m/libm.a(lib_a-kf_sin.o)
 .ARM.attributes
                0x0000000000001073       0x2d /Users/imac/Develop/stm32f4/arm_gcc/gcc-arm-none-eabi-4_8-2014q2/bin/../lib/gcc/arm-none-eabi/4.8.4/../../../../arm-none-eabi/lib/armv7-m/libm.a(lib_a-s_lib_ver.o)
 .ARM.attributes
                0x00000000000010a0       0x2d /Users/imac/Develop/stm32f4/arm_gcc/gcc-arm-none-eabi-4_8-2014q2/bin/../lib/gcc/arm-none-eabi/4.8.4/../../../../arm-none-eabi/lib/armv7-m/libm.a(lib_a-s_matherr.o)
 .ARM.attributes
                0x00000000000010cd       0x2d /Users/imac/Develop/stm32f4/arm_gcc/gcc-arm-none-eabi-4_8-2014q2/bin/../lib/gcc/arm-none-eabi/4.8.4/../../../../arm-none-eabi/lib/armv7-m/libm.a(lib_a-s_rint.o)
 .ARM.attributes
                0x00000000000010fa       0x2d /Users/imac/Develop/stm32f4/arm_gcc/gcc-arm-none-eabi-4_8-2014q2/bin/../lib/gcc/arm-none-eabi/4.8.4/../../../../arm-none-eabi/lib/armv7-m/libm.a(lib_a-sf_atan.o)
 .ARM.attributes
                0x0000000000001127       0x2d /Users/imac/Develop/stm32f4/arm_gcc/gcc-arm-none-eabi-4_8-2014q2/bin/../lib/gcc/arm-none-eabi/4.8.4/../../../../arm-none-eabi/lib/armv7-m/libm.a(lib_a-sf_fabs.o)
 .ARM.attributes
                0x0000000000001154       0x2d /Users/imac/Develop/stm32f4/arm_gcc/gcc-arm-none-eabi-4_8-2014q2/bin/../lib/gcc/arm-none-eabi/4.8.4/../../../../arm-none-eabi/lib/armv7-m/libm.a(lib_a-sf_finite.o)
 .ARM.attributes
                0x0000000000001181       0x2d /Users/imac/Develop/stm32f4/arm_gcc/gcc-arm-none-eabi-4_8-2014q2/bin/../lib/gcc/arm-none-eabi/4.8.4/../../../../arm-none-eabi/lib/armv7-m/libm.a(lib_a-sf_floor.o)
 .ARM.attributes
                0x00000000000011ae       0x2d /Users/imac/Develop/stm32f4/arm_gcc/gcc-arm-none-eabi-4_8-2014q2/bin/../lib/gcc/arm-none-eabi/4.8.4/../../../../arm-none-eabi/lib/armv7-m/libm.a(lib_a-sf_fpclassify.o)
 .ARM.attributes
                0x00000000000011db       0x2d /Users/imac/Develop/stm32f4/arm_gcc/gcc-arm-none-eabi-4_8-2014q2/bin/../lib/gcc/arm-none-eabi/4.8.4/../../../../arm-none-eabi/lib/armv7-m/libm.a(lib_a-sf_nan.o)
 .ARM.attributes
                0x0000000000001208       0x2d /Users/imac/Develop/stm32f4/arm_gcc/gcc-arm-none-eabi-4_8-2014q2/bin/../lib/gcc/arm-none-eabi/4.8.4/../../../../arm-none-eabi/lib/armv7-m/libm.a(lib_a-sf_scalbn.o)
 .ARM.attributes
                0x0000000000001235       0x2d /Users/imac/Develop/stm32f4/arm_gcc/gcc-arm-none-eabi-4_8-2014q2/bin/../lib/gcc/arm-none-eabi/4.8.4/../../../../arm-none-eabi/lib/armv7-m/libm.a(lib_a-sf_copysign.o)
 .ARM.attributes
                0x0000000000001262       0x1d /Users/imac/Develop/stm32f4/arm_gcc/gcc-arm-none-eabi-4_8-2014q2/bin/../lib/gcc/arm-none-eabi/4.8.4/armv7-m/libgcc.a(_arm_addsubdf3.o)
 .ARM.attributes
                0x000000000000127f       0x1d /Users/imac/Develop/stm32f4/arm_gcc/gcc-arm-none-eabi-4_8-2014q2/bin/../lib/gcc/arm-none-eabi/4.8.4/armv7-m/libgcc.a(_arm_muldivdf3.o)
 .ARM.attributes
                0x000000000000129c       0x1d /Users/imac/Develop/stm32f4/arm_gcc/gcc-arm-none-eabi-4_8-2014q2/bin/../lib/gcc/arm-none-eabi/4.8.4/armv7-m/libgcc.a(_arm_cmpdf2.o)
 .ARM.attributes
                0x00000000000012b9       0x1d /Users/imac/Develop/stm32f4/arm_gcc/gcc-arm-none-eabi-4_8-2014q2/bin/../lib/gcc/arm-none-eabi/4.8.4/armv7-m/libgcc.a(_arm_truncdfsf2.o)
 .ARM.attributes
                0x00000000000012d6       0x1d /Users/imac/Develop/stm32f4/arm_gcc/gcc-arm-none-eabi-4_8-2014q2/bin/../lib/gcc/arm-none-eabi/4.8.4/armv7-m/libgcc.a(_arm_addsubsf3.o)
 .ARM.attributes
                0x00000000000012f3       0x1d /Users/imac/Develop/stm32f4/arm_gcc/gcc-arm-none-eabi-4_8-2014q2/bin/../lib/gcc/arm-none-eabi/4.8.4/armv7-m/libgcc.a(_arm_muldivsf3.o)
 .ARM.attributes
                0x0000000000001310       0x1d /Users/imac/Develop/stm32f4/arm_gcc/gcc-arm-none-eabi-4_8-2014q2/bin/../lib/gcc/arm-none-eabi/4.8.4/armv7-m/libgcc.a(_arm_cmpsf2.o)
 .ARM.attributes
                0x000000000000132d       0x1d /Users/imac/Develop/stm32f4/arm_gcc/gcc-arm-none-eabi-4_8-2014q2/bin/../lib/gcc/arm-none-eabi/4.8.4/armv7-m/libgcc.a(_arm_fixsfsi.o)
 .ARM.attributes
                0x000000000000134a       0x1d /Users/imac/Develop/stm32f4/arm_gcc/gcc-arm-none-eabi-4_8-2014q2/bin/../lib/gcc/arm-none-eabi/4.8.4/armv7-m/libgcc.a(_arm_fixunssfsi.o)
 .ARM.attributes
                0x0000000000001367       0x2d /Users/imac/Develop/stm32f4/arm_gcc/gcc-arm-none-eabi-4_8-2014q2/bin/../lib/gcc/arm-none-eabi/4.8.4/../../../../arm-none-eabi/lib/armv7-m/libc.a(lib_a-atoi.o)
 .ARM.attributes
                0x0000000000001394       0x2d /Users/imac/Develop/stm32f4/arm_gcc/gcc-arm-none-eabi-4_8-2014q2/bin/../lib/gcc/arm-none-eabi/4.8.4/../../../../arm-none-eabi/lib/armv7-m/libc.a(lib_a-bsearch.o)
 .ARM.attributes
                0x00000000000013c1       0x2d /Users/imac/Develop/stm32f4/arm_gcc/gcc-arm-none-eabi-4_8-2014q2/bin/../lib/gcc/arm-none-eabi/4.8.4/../../../../arm-none-eabi/lib/armv7-m/libc.a(lib_a-ctype_.o)
 .ARM.attributes
                0x00000000000013ee       0x2d /Users/imac/Develop/stm32f4/arm_gcc/gcc-arm-none-eabi-4_8-2014q2/bin/../lib/gcc/arm-none-eabi/4.8.4/../../../../arm-none-eabi/lib/armv7-m/libc.a(lib_a-errno.o)
 .ARM.attributes
                0x000000000000141b       0x2d /Users/imac/Develop/stm32f4/arm_gcc/gcc-arm-none-eabi-4_8-2014q2/bin/../lib/gcc/arm-none-eabi/4.8.4/../../../../arm-none-eabi/lib/armv7-m/libc.a(lib_a-impure.o)
 .ARM.attributes
                0x0000000000001448       0x2d /Users/imac/Develop/stm32f4/arm_gcc/gcc-arm-none-eabi-4_8-2014q2/bin/../lib/gcc/arm-none-eabi/4.8.4/../../../../arm-none-eabi/lib/armv7-m/libc.a(lib_a-init.o)
 .ARM.attributes
                0x0000000000001475       0x1b /Users/imac/Develop/stm32f4/arm_gcc/gcc-arm-none-eabi-4_8-2014q2/bin/../lib/gcc/arm-none-eabi/4.8.4/../../../../arm-none-eabi/lib/armv7-m/libc.a(lib_a-memcpy.o)
 .ARM.attributes
                0x0000000000001490       0x2d /Users/imac/Develop/stm32f4/arm_gcc/gcc-arm-none-eabi-4_8-2014q2/bin/../lib/gcc/arm-none-eabi/4.8.4/../../../../arm-none-eabi/lib/armv7-m/libc.a(lib_a-memset.o)
 .ARM.attributes
                0x00000000000014bd       0x2d /Users/imac/Develop/stm32f4/arm_gcc/gcc-arm-none-eabi-4_8-2014q2/bin/../lib/gcc/arm-none-eabi/4.8.4/../../../../arm-none-eabi/lib/armv7-m/libc.a(lib_a-strcat.o)
 .ARM.attributes
                0x00000000000014ea       0x2d /Users/imac/Develop/stm32f4/arm_gcc/gcc-arm-none-eabi-4_8-2014q2/bin/../lib/gcc/arm-none-eabi/4.8.4/../../../../arm-none-eabi/lib/armv7-m/libc.a(lib_a-strchr.o)
 .ARM.attributes
                0x0000000000001517       0x2d /Users/imac/Develop/stm32f4/arm_gcc/gcc-arm-none-eabi-4_8-2014q2/bin/../lib/gcc/arm-none-eabi/4.8.4/../../../../arm-none-eabi/lib/armv7-m/libc.a(lib_a-strcpy.o)
 .ARM.attributes
                0x0000000000001544       0x2d /Users/imac/Develop/stm32f4/arm_gcc/gcc-arm-none-eabi-4_8-2014q2/bin/../lib/gcc/arm-none-eabi/4.8.4/../../../../arm-none-eabi/lib/armv7-m/libc.a(lib_a-strlen.o)
 .ARM.attributes
                0x0000000000001571       0x2d /Users/imac/Develop/stm32f4/arm_gcc/gcc-arm-none-eabi-4_8-2014q2/bin/../lib/gcc/arm-none-eabi/4.8.4/../../../../arm-none-eabi/lib/armv7-m/libc.a(lib_a-strncasecmp.o)
 .ARM.attributes
                0x000000000000159e       0x2d /Users/imac/Develop/stm32f4/arm_gcc/gcc-arm-none-eabi-4_8-2014q2/bin/../lib/gcc/arm-none-eabi/4.8.4/../../../../arm-none-eabi/lib/armv7-m/libc.a(lib_a-strncpy.o)
 .ARM.attributes
                0x00000000000015cb       0x2d /Users/imac/Develop/stm32f4/arm_gcc/gcc-arm-none-eabi-4_8-2014q2/bin/../lib/gcc/arm-none-eabi/4.8.4/../../../../arm-none-eabi/lib/armv7-m/libc.a(lib_a-strstr.o)
 .ARM.attributes
                0x00000000000015f8       0x2d /Users/imac/Develop/stm32f4/arm_gcc/gcc-arm-none-eabi-4_8-2014q2/bin/../lib/gcc/arm-none-eabi/4.8.4/../../../../arm-none-eabi/lib/armv7-m/libc.a(lib_a-strtok.o)
 .ARM.attributes
                0x0000000000001625       0x2d /Users/imac/Develop/stm32f4/arm_gcc/gcc-arm-none-eabi-4_8-2014q2/bin/../lib/gcc/arm-none-eabi/4.8.4/../../../../arm-none-eabi/lib/armv7-m/libc.a(lib_a-strtok_r.o)
 .ARM.attributes
                0x0000000000001652       0x2d /Users/imac/Develop/stm32f4/arm_gcc/gcc-arm-none-eabi-4_8-2014q2/bin/../lib/gcc/arm-none-eabi/4.8.4/../../../../arm-none-eabi/lib/armv7-m/libc.a(lib_a-strtol.o)
 .ARM.attributes
                0x000000000000167f       0x2d /Users/imac/Develop/stm32f4/arm_gcc/gcc-arm-none-eabi-4_8-2014q2/bin/../lib/gcc/arm-none-eabi/4.8.4/../../../../arm-none-eabi/lib/armv7-m/libc.a(lib_a-__call_atexit.o)
 .ARM.attributes
                0x00000000000016ac       0x2d /Users/imac/Develop/stm32f4/arm_gcc/gcc-arm-none-eabi-4_8-2014q2/bin/../lib/gcc/arm-none-eabi/4.8.4/../../../../arm-none-eabi/lib/armv7-m/libc.a(lib_a-atexit.o)
 .ARM.attributes
                0x00000000000016d9       0x2d /Users/imac/Develop/stm32f4/arm_gcc/gcc-arm-none-eabi-4_8-2014q2/bin/../lib/gcc/arm-none-eabi/4.8.4/../../../../arm-none-eabi/lib/armv7-m/libc.a(lib_a-fini.o)
 .ARM.attributes
                0x0000000000001706       0x2d /Users/imac/Develop/stm32f4/arm_gcc/gcc-arm-none-eabi-4_8-2014q2/bin/../lib/gcc/arm-none-eabi/4.8.4/../../../../arm-none-eabi/lib/armv7-m/libc.a(lib_a-memchr-stub.o)
 .ARM.attributes
                0x0000000000001733       0x2d /Users/imac/Develop/stm32f4/arm_gcc/gcc-arm-none-eabi-4_8-2014q2/bin/../lib/gcc/arm-none-eabi/4.8.4/../../../../arm-none-eabi/lib/armv7-m/libc.a(lib_a-memcmp.o)
 .ARM.attributes
                0x0000000000001760       0x2d /Users/imac/Develop/stm32f4/arm_gcc/gcc-arm-none-eabi-4_8-2014q2/bin/../lib/gcc/arm-none-eabi/4.8.4/../../../../arm-none-eabi/lib/armv7-m/libc.a(lib_a-__atexit.o)
 .ARM.attributes
                0x000000000000178d       0x1d /Users/imac/Develop/stm32f4/arm_gcc/gcc-arm-none-eabi-4_8-2014q2/bin/../lib/gcc/arm-none-eabi/4.8.4/armv7-m/crtn.o
OUTPUT(obj/SKYROVER.elf elf32-littlearm)

.comment        0x0000000000000000       0x70
 .comment       0x0000000000000000       0x70 obj/SKYROVER/drv_adc.o
                                         0x71 (size before relaxing)
 .comment       0x0000000000000000       0x71 obj/SKYROVER/drv_adxl345.o
 .comment       0x0000000000000000       0x71 obj/SKYROVER/drv_bma280.o
 .comment       0x0000000000000000       0x71 obj/SKYROVER/drv_bmp085.o
 .comment       0x0000000000000000       0x71 obj/SKYROVER/drv_ms5611.o
 .comment       0x0000000000000000       0x71 obj/SKYROVER/drv_hmc5883l.o
 .comment       0x0000000000000000       0x71 obj/SKYROVER/drv_mma845x.o
 .comment       0x0000000000000000       0x71 obj/SKYROVER/drv_mpu3050.o
 .comment       0x0000000000000000       0x71 obj/SKYROVER/drv_mpu6050.o
 .comment       0x0000000000000000       0x71 obj/SKYROVER/drv_l3g4200d.o
 .comment       0x0000000000000000       0x71 obj/SKYROVER/drv_pwm.o
 .comment       0x0000000000000000       0x71 obj/SKYROVER/drv_spi.o
 .comment       0x0000000000000000       0x71 obj/SKYROVER/drv_timer.o
 .comment       0x0000000000000000       0x71 obj/SKYROVER/hexairbot.o
 .comment       0x0000000000000000       0x71 obj/SKYROVER/buzzer.o
 .comment       0x0000000000000000       0x71 obj/SKYROVER/cli.o
 .comment       0x0000000000000000       0x71 obj/SKYROVER/config.o
 .comment       0x0000000000000000       0x71 obj/SKYROVER/gps.o
 .comment       0x0000000000000000       0x71 obj/SKYROVER/imu.o
 .comment       0x0000000000000000       0x71 obj/SKYROVER/main.o
 .comment       0x0000000000000000       0x71 obj/SKYROVER/mixer.o
 .comment       0x0000000000000000       0x71 obj/SKYROVER/mw.o
 .comment       0x0000000000000000       0x71 obj/SKYROVER/sensors.o
 .comment       0x0000000000000000       0x71 obj/SKYROVER/serial.o
 .comment       0x0000000000000000       0x71 obj/SKYROVER/sbus.o
 .comment       0x0000000000000000       0x71 obj/SKYROVER/sumd.o
 .comment       0x0000000000000000       0x71 obj/SKYROVER/spektrum.o
 .comment       0x0000000000000000       0x71 obj/SKYROVER/telemetry.o
 .comment       0x0000000000000000       0x71 obj/SKYROVER/drv_gpio.o
 .comment       0x0000000000000000       0x71 obj/SKYROVER/drv_i2c.o
 .comment       0x0000000000000000       0x71 obj/SKYROVER/drv_system.o
 .comment       0x0000000000000000       0x71 obj/SKYROVER/drv_serial.o
 .comment       0x0000000000000000       0x71 obj/SKYROVER/drv_softserial.o
 .comment       0x0000000000000000       0x71 obj/SKYROVER/drv_uart.o
 .comment       0x0000000000000000       0x71 obj/SKYROVER/drv_vcom.o
 .comment       0x0000000000000000       0x71 obj/SKYROVER/drv_vcom_q.o
 .comment       0x0000000000000000       0x71 obj/SKYROVER/printf.o
 .comment       0x0000000000000000       0x71 obj/SKYROVER/utils.o
 .comment       0x0000000000000000       0x71 obj/SKYROVER/system_stm32f10x.o
 .comment       0x0000000000000000       0x71 obj/SKYROVER/misc.o
 .comment       0x0000000000000000       0x71 obj/SKYROVER/stm32f10x_adc.o
 .comment       0x0000000000000000       0x71 obj/SKYROVER/stm32f10x_dma.o
 .comment       0x0000000000000000       0x71 obj/SKYROVER/stm32f10x_exti.o
 .comment       0x0000000000000000       0x71 obj/SKYROVER/stm32f10x_flash.o
 .comment       0x0000000000000000       0x71 obj/SKYROVER/stm32f10x_gpio.o
 .comment       0x0000000000000000       0x71 obj/SKYROVER/stm32f10x_i2c.o
 .comment       0x0000000000000000       0x71 obj/SKYROVER/stm32f10x_rcc.o
 .comment       0x0000000000000000       0x71 obj/SKYROVER/stm32f10x_spi.o
 .comment       0x0000000000000000       0x71 obj/SKYROVER/stm32f10x_tim.o
 .comment       0x0000000000000000       0x71 obj/SKYROVER/stm32f10x_usart.o
 .comment       0x0000000000000000       0x71 obj/SKYROVER/list.o
 .comment       0x0000000000000000       0x71 obj/SKYROVER/queue.o
 .comment       0x0000000000000000       0x71 obj/SKYROVER/tasks.o
 .comment       0x0000000000000000       0x71 obj/SKYROVER/timers.o
 .comment       0x0000000000000000       0x71 obj/SKYROVER/cmsis_os.o
 .comment       0x0000000000000000       0x71 obj/SKYROVER/heap_2.o
 .comment       0x0000000000000000       0x71 obj/SKYROVER/port.o
 .comment       0x0000000000000000       0x71 obj/SKYROVER/usb_core.o
 .comment       0x0000000000000000       0x71 obj/SKYROVER/usb_init.o
 .comment       0x0000000000000000       0x71 obj/SKYROVER/usb_int.o
 .comment       0x0000000000000000       0x71 obj/SKYROVER/usb_mem.o
 .comment       0x0000000000000000       0x71 obj/SKYROVER/usb_regs.o
 .comment       0x0000000000000000       0x71 obj/SKYROVER/usb_sil.o
 .comment       0x0000000000000000       0x71 obj/SKYROVER/hw_config.o
 .comment       0x0000000000000000       0x71 obj/SKYROVER/usb_desc.o
 .comment       0x0000000000000000       0x71 obj/SKYROVER/usb_endp.o
 .comment       0x0000000000000000       0x71 obj/SKYROVER/usb_istr.o
 .comment       0x0000000000000000       0x71 obj/SKYROVER/usb_prop.o
 .comment       0x0000000000000000       0x71 obj/SKYROVER/usb_pwr.o

.debug_frame    0x0000000000000000      0x810
 .debug_frame   0x0000000000000000       0x28 /Users/imac/Develop/stm32f4/arm_gcc/gcc-arm-none-eabi-4_8-2014q2/bin/../lib/gcc/arm-none-eabi/4.8.4/../../../../arm-none-eabi/lib/armv7-m/libm.a(lib_a-sf_cos.o)
 .debug_frame   0x0000000000000028       0x2c /Users/imac/Develop/stm32f4/arm_gcc/gcc-arm-none-eabi-4_8-2014q2/bin/../lib/gcc/arm-none-eabi/4.8.4/../../../../arm-none-eabi/lib/armv7-m/libm.a(lib_a-sf_lrint.o)
 .debug_frame   0x0000000000000054       0x28 /Users/imac/Develop/stm32f4/arm_gcc/gcc-arm-none-eabi-4_8-2014q2/bin/../lib/gcc/arm-none-eabi/4.8.4/../../../../arm-none-eabi/lib/armv7-m/libm.a(lib_a-sf_sin.o)
 .debug_frame   0x000000000000007c       0x20 /Users/imac/Develop/stm32f4/arm_gcc/gcc-arm-none-eabi-4_8-2014q2/bin/../lib/gcc/arm-none-eabi/4.8.4/../../../../arm-none-eabi/lib/armv7-m/libm.a(lib_a-wf_atan2.o)
 .debug_frame   0x000000000000009c       0x34 /Users/imac/Develop/stm32f4/arm_gcc/gcc-arm-none-eabi-4_8-2014q2/bin/../lib/gcc/arm-none-eabi/4.8.4/../../../../arm-none-eabi/lib/armv7-m/libm.a(lib_a-wf_pow.o)
 .debug_frame   0x00000000000000d0       0x30 /Users/imac/Develop/stm32f4/arm_gcc/gcc-arm-none-eabi-4_8-2014q2/bin/../lib/gcc/arm-none-eabi/4.8.4/../../../../arm-none-eabi/lib/armv7-m/libm.a(lib_a-wf_sqrt.o)
 .debug_frame   0x0000000000000100       0x30 /Users/imac/Develop/stm32f4/arm_gcc/gcc-arm-none-eabi-4_8-2014q2/bin/../lib/gcc/arm-none-eabi/4.8.4/../../../../arm-none-eabi/lib/armv7-m/libm.a(lib_a-ef_atan2.o)
 .debug_frame   0x0000000000000130       0x38 /Users/imac/Develop/stm32f4/arm_gcc/gcc-arm-none-eabi-4_8-2014q2/bin/../lib/gcc/arm-none-eabi/4.8.4/../../../../arm-none-eabi/lib/armv7-m/libm.a(lib_a-ef_pow.o)
 .debug_frame   0x0000000000000168       0x38 /Users/imac/Develop/stm32f4/arm_gcc/gcc-arm-none-eabi-4_8-2014q2/bin/../lib/gcc/arm-none-eabi/4.8.4/../../../../arm-none-eabi/lib/armv7-m/libm.a(lib_a-ef_rem_pio2.o)
 .debug_frame   0x00000000000001a0       0x30 /Users/imac/Develop/stm32f4/arm_gcc/gcc-arm-none-eabi-4_8-2014q2/bin/../lib/gcc/arm-none-eabi/4.8.4/../../../../arm-none-eabi/lib/armv7-m/libm.a(lib_a-ef_sqrt.o)
 .debug_frame   0x00000000000001d0       0x34 /Users/imac/Develop/stm32f4/arm_gcc/gcc-arm-none-eabi-4_8-2014q2/bin/../lib/gcc/arm-none-eabi/4.8.4/../../../../arm-none-eabi/lib/armv7-m/libm.a(lib_a-kf_cos.o)
 .debug_frame   0x0000000000000204       0x3c /Users/imac/Develop/stm32f4/arm_gcc/gcc-arm-none-eabi-4_8-2014q2/bin/../lib/gcc/arm-none-eabi/4.8.4/../../../../arm-none-eabi/lib/armv7-m/libm.a(lib_a-kf_rem_pio2.o)
 .debug_frame   0x0000000000000240       0x34 /Users/imac/Develop/stm32f4/arm_gcc/gcc-arm-none-eabi-4_8-2014q2/bin/../lib/gcc/arm-none-eabi/4.8.4/../../../../arm-none-eabi/lib/armv7-m/libm.a(lib_a-kf_sin.o)
 .debug_frame   0x0000000000000274       0x20 /Users/imac/Develop/stm32f4/arm_gcc/gcc-arm-none-eabi-4_8-2014q2/bin/../lib/gcc/arm-none-eabi/4.8.4/../../../../arm-none-eabi/lib/armv7-m/libm.a(lib_a-s_matherr.o)
 .debug_frame   0x0000000000000294       0x34 /Users/imac/Develop/stm32f4/arm_gcc/gcc-arm-none-eabi-4_8-2014q2/bin/../lib/gcc/arm-none-eabi/4.8.4/../../../../arm-none-eabi/lib/armv7-m/libm.a(lib_a-s_rint.o)
 .debug_frame   0x00000000000002c8       0x30 /Users/imac/Develop/stm32f4/arm_gcc/gcc-arm-none-eabi-4_8-2014q2/bin/../lib/gcc/arm-none-eabi/4.8.4/../../../../arm-none-eabi/lib/armv7-m/libm.a(lib_a-sf_atan.o)
 .debug_frame   0x00000000000002f8       0x20 /Users/imac/Develop/stm32f4/arm_gcc/gcc-arm-none-eabi-4_8-2014q2/bin/../lib/gcc/arm-none-eabi/4.8.4/../../../../arm-none-eabi/lib/armv7-m/libm.a(lib_a-sf_fabs.o)
 .debug_frame   0x0000000000000318       0x20 /Users/imac/Develop/stm32f4/arm_gcc/gcc-arm-none-eabi-4_8-2014q2/bin/../lib/gcc/arm-none-eabi/4.8.4/../../../../arm-none-eabi/lib/armv7-m/libm.a(lib_a-sf_finite.o)
 .debug_frame   0x0000000000000338       0x30 /Users/imac/Develop/stm32f4/arm_gcc/gcc-arm-none-eabi-4_8-2014q2/bin/../lib/gcc/arm-none-eabi/4.8.4/../../../../arm-none-eabi/lib/armv7-m/libm.a(lib_a-sf_floor.o)
 .debug_frame   0x0000000000000368       0x20 /Users/imac/Develop/stm32f4/arm_gcc/gcc-arm-none-eabi-4_8-2014q2/bin/../lib/gcc/arm-none-eabi/4.8.4/../../../../arm-none-eabi/lib/armv7-m/libm.a(lib_a-sf_fpclassify.o)
 .debug_frame   0x0000000000000388       0x20 /Users/imac/Develop/stm32f4/arm_gcc/gcc-arm-none-eabi-4_8-2014q2/bin/../lib/gcc/arm-none-eabi/4.8.4/../../../../arm-none-eabi/lib/armv7-m/libm.a(lib_a-sf_nan.o)
 .debug_frame   0x00000000000003a8       0x2c /Users/imac/Develop/stm32f4/arm_gcc/gcc-arm-none-eabi-4_8-2014q2/bin/../lib/gcc/arm-none-eabi/4.8.4/../../../../arm-none-eabi/lib/armv7-m/libm.a(lib_a-sf_scalbn.o)
 .debug_frame   0x00000000000003d4       0x20 /Users/imac/Develop/stm32f4/arm_gcc/gcc-arm-none-eabi-4_8-2014q2/bin/../lib/gcc/arm-none-eabi/4.8.4/../../../../arm-none-eabi/lib/armv7-m/libm.a(lib_a-sf_copysign.o)
 .debug_frame   0x00000000000003f4       0x30 /Users/imac/Develop/stm32f4/arm_gcc/gcc-arm-none-eabi-4_8-2014q2/bin/../lib/gcc/arm-none-eabi/4.8.4/../../../../arm-none-eabi/lib/armv7-m/libc.a(lib_a-atoi.o)
 .debug_frame   0x0000000000000424       0x38 /Users/imac/Develop/stm32f4/arm_gcc/gcc-arm-none-eabi-4_8-2014q2/bin/../lib/gcc/arm-none-eabi/4.8.4/../../../../arm-none-eabi/lib/armv7-m/libc.a(lib_a-bsearch.o)
 .debug_frame   0x000000000000045c       0x20 /Users/imac/Develop/stm32f4/arm_gcc/gcc-arm-none-eabi-4_8-2014q2/bin/../lib/gcc/arm-none-eabi/4.8.4/../../../../arm-none-eabi/lib/armv7-m/libc.a(lib_a-errno.o)
 .debug_frame   0x000000000000047c       0x2c /Users/imac/Develop/stm32f4/arm_gcc/gcc-arm-none-eabi-4_8-2014q2/bin/../lib/gcc/arm-none-eabi/4.8.4/../../../../arm-none-eabi/lib/armv7-m/libc.a(lib_a-init.o)
 .debug_frame   0x00000000000004a8       0x2c /Users/imac/Develop/stm32f4/arm_gcc/gcc-arm-none-eabi-4_8-2014q2/bin/../lib/gcc/arm-none-eabi/4.8.4/../../../../arm-none-eabi/lib/armv7-m/libc.a(lib_a-memset.o)
 .debug_frame   0x00000000000004d4       0x2c /Users/imac/Develop/stm32f4/arm_gcc/gcc-arm-none-eabi-4_8-2014q2/bin/../lib/gcc/arm-none-eabi/4.8.4/../../../../arm-none-eabi/lib/armv7-m/libc.a(lib_a-strcat.o)
 .debug_frame   0x0000000000000500       0x2c /Users/imac/Develop/stm32f4/arm_gcc/gcc-arm-none-eabi-4_8-2014q2/bin/../lib/gcc/arm-none-eabi/4.8.4/../../../../arm-none-eabi/lib/armv7-m/libc.a(lib_a-strchr.o)
 .debug_frame   0x000000000000052c       0x20 /Users/imac/Develop/stm32f4/arm_gcc/gcc-arm-none-eabi-4_8-2014q2/bin/../lib/gcc/arm-none-eabi/4.8.4/../../../../arm-none-eabi/lib/armv7-m/libc.a(lib_a-strcpy.o)
 .debug_frame   0x000000000000054c       0x20 /Users/imac/Develop/stm32f4/arm_gcc/gcc-arm-none-eabi-4_8-2014q2/bin/../lib/gcc/arm-none-eabi/4.8.4/../../../../arm-none-eabi/lib/armv7-m/libc.a(lib_a-strlen.o)
 .debug_frame   0x000000000000056c       0x2c /Users/imac/Develop/stm32f4/arm_gcc/gcc-arm-none-eabi-4_8-2014q2/bin/../lib/gcc/arm-none-eabi/4.8.4/../../../../arm-none-eabi/lib/armv7-m/libc.a(lib_a-strncasecmp.o)
 .debug_frame   0x0000000000000598       0x2c /Users/imac/Develop/stm32f4/arm_gcc/gcc-arm-none-eabi-4_8-2014q2/bin/../lib/gcc/arm-none-eabi/4.8.4/../../../../arm-none-eabi/lib/armv7-m/libc.a(lib_a-strncpy.o)
 .debug_frame   0x00000000000005c4       0x84 /Users/imac/Develop/stm32f4/arm_gcc/gcc-arm-none-eabi-4_8-2014q2/bin/../lib/gcc/arm-none-eabi/4.8.4/../../../../arm-none-eabi/lib/armv7-m/libc.a(lib_a-strstr.o)
 .debug_frame   0x0000000000000648       0x20 /Users/imac/Develop/stm32f4/arm_gcc/gcc-arm-none-eabi-4_8-2014q2/bin/../lib/gcc/arm-none-eabi/4.8.4/../../../../arm-none-eabi/lib/armv7-m/libc.a(lib_a-strtok.o)
 .debug_frame   0x0000000000000668       0x3c /Users/imac/Develop/stm32f4/arm_gcc/gcc-arm-none-eabi-4_8-2014q2/bin/../lib/gcc/arm-none-eabi/4.8.4/../../../../arm-none-eabi/lib/armv7-m/libc.a(lib_a-strtok_r.o)
 .debug_frame   0x00000000000006a4       0x50 /Users/imac/Develop/stm32f4/arm_gcc/gcc-arm-none-eabi-4_8-2014q2/bin/../lib/gcc/arm-none-eabi/4.8.4/../../../../arm-none-eabi/lib/armv7-m/libc.a(lib_a-strtol.o)
 .debug_frame   0x00000000000006f4       0x48 /Users/imac/Develop/stm32f4/arm_gcc/gcc-arm-none-eabi-4_8-2014q2/bin/../lib/gcc/arm-none-eabi/4.8.4/../../../../arm-none-eabi/lib/armv7-m/libc.a(lib_a-__call_atexit.o)
 .debug_frame   0x000000000000073c       0x20 /Users/imac/Develop/stm32f4/arm_gcc/gcc-arm-none-eabi-4_8-2014q2/bin/../lib/gcc/arm-none-eabi/4.8.4/../../../../arm-none-eabi/lib/armv7-m/libc.a(lib_a-atexit.o)
 .debug_frame   0x000000000000075c       0x2c /Users/imac/Develop/stm32f4/arm_gcc/gcc-arm-none-eabi-4_8-2014q2/bin/../lib/gcc/arm-none-eabi/4.8.4/../../../../arm-none-eabi/lib/armv7-m/libc.a(lib_a-fini.o)
 .debug_frame   0x0000000000000788       0x2c /Users/imac/Develop/stm32f4/arm_gcc/gcc-arm-none-eabi-4_8-2014q2/bin/../lib/gcc/arm-none-eabi/4.8.4/../../../../arm-none-eabi/lib/armv7-m/libc.a(lib_a-memchr-stub.o)
 .debug_frame   0x00000000000007b4       0x2c /Users/imac/Develop/stm32f4/arm_gcc/gcc-arm-none-eabi-4_8-2014q2/bin/../lib/gcc/arm-none-eabi/4.8.4/../../../../arm-none-eabi/lib/armv7-m/libc.a(lib_a-memcmp.o)
 .debug_frame   0x00000000000007e0       0x30 /Users/imac/Develop/stm32f4/arm_gcc/gcc-arm-none-eabi-4_8-2014q2/bin/../lib/gcc/arm-none-eabi/4.8.4/../../../../arm-none-eabi/lib/armv7-m/libc.a(lib_a-__atexit.o)
